###############################################################################
#
# IAR ELF Linker V9.10.2.313/W64 for ARM                  07/Sep/2022  14:09:41
# Copyright 2007-2021 IAR Systems AB.
#
#    Output file  =  D:\WorkOther\EBU6\EWARM\EBU6\Exe\EBU6.out
#    Map file     =  D:\WorkOther\EBU6\EWARM\EBU6\List\EBU6.map
#    Command line =
#        -f D:\WorkOther\EBU6\EWARM\EBU6\List\EBU6.map.rsp
#        (D:\WorkOther\EBU6\EWARM\EBU6\Obj\Application\User\Core\add_ValueConv.o
#        D:\WorkOther\EBU6\EWARM\EBU6\Obj\Application\User\Core\Peref\CMS58M.o
#        D:\WorkOther\EBU6\EWARM\EBU6\Obj\Application\User\Core\Comm\comm.o
#        D:\WorkOther\EBU6\EWARM\EBU6\Obj\Application\User\Core\Core\core_InverterControl.o
#        D:\WorkOther\EBU6\EWARM\EBU6\Obj\Application\User\Core\Core\core_Menu.o
#        D:\WorkOther\EBU6\EWARM\EBU6\Obj\Application\User\Core\Core\core_Protections.o
#        D:\WorkOther\EBU6\EWARM\EBU6\Obj\Application\User\Core\Core\core_VlvDrvCtrl.o
#        D:\WorkOther\EBU6\EWARM\EBU6\Obj\Application\User\Core\Comm\drv_modbus.o
#        D:\WorkOther\EBU6\EWARM\EBU6\Obj\Application\User\Core\Core\g_Core.o
#        D:\WorkOther\EBU6\EWARM\EBU6\Obj\Application\User\Core\Global\g_InterruptUpdate.o
#        D:\WorkOther\EBU6\EWARM\EBU6\Obj\Application\User\Core\Global\g_Ram.o
#        D:\WorkOther\EBU6\EWARM\EBU6\Obj\Application\User\Core\main.o
#        D:\WorkOther\EBU6\EWARM\EBU6\Obj\Application\User\Core\Peref\peref.o
#        D:\WorkOther\EBU6\EWARM\EBU6\Obj\Application\User\Core\Peref\peref_ApFilter1.o
#        D:\WorkOther\EBU6\EWARM\EBU6\Obj\Application\User\Core\Peref\peref_ApFilter3.o
#        D:\WorkOther\EBU6\EWARM\EBU6\Obj\Application\User\Core\Peref\peref_Calibs.o
#        D:\WorkOther\EBU6\EWARM\EBU6\Obj\Application\User\Core\Peref\peref_Clock.o
#        D:\WorkOther\EBU6\EWARM\EBU6\Obj\Application\User\Core\Peref\peref_display.o
#        D:\WorkOther\EBU6\EWARM\EBU6\Obj\Application\User\Core\Peref\peref_SensObserver.o
#        D:\WorkOther\EBU6\EWARM\EBU6\Obj\Application\User\Core\Peref\peref_SinObserver.o
#        D:\WorkOther\EBU6\EWARM\EBU6\Obj\Application\EWARM\startup_stm32h743xx.o
#        D:\WorkOther\EBU6\EWARM\EBU6\Obj\Application\User\Core\Stat\stat.o
#        D:\WorkOther\EBU6\EWARM\EBU6\Obj\Application\User\Core\Stat\stat_fm25v10.o
#        D:\WorkOther\EBU6\EWARM\EBU6\Obj\Drivers\STM32H7xx_HAL_Driver\stm32h7xx_hal.o
#        D:\WorkOther\EBU6\EWARM\EBU6\Obj\Drivers\STM32H7xx_HAL_Driver\stm32h7xx_hal_adc.o
#        D:\WorkOther\EBU6\EWARM\EBU6\Obj\Drivers\STM32H7xx_HAL_Driver\stm32h7xx_hal_adc_ex.o
#        D:\WorkOther\EBU6\EWARM\EBU6\Obj\Drivers\STM32H7xx_HAL_Driver\stm32h7xx_hal_cortex.o
#        D:\WorkOther\EBU6\EWARM\EBU6\Obj\Drivers\STM32H7xx_HAL_Driver\stm32h7xx_hal_dma.o
#        D:\WorkOther\EBU6\EWARM\EBU6\Obj\Drivers\STM32H7xx_HAL_Driver\stm32h7xx_hal_dma_ex.o
#        D:\WorkOther\EBU6\EWARM\EBU6\Obj\Drivers\STM32H7xx_HAL_Driver\stm32h7xx_hal_exti.o
#        D:\WorkOther\EBU6\EWARM\EBU6\Obj\Drivers\STM32H7xx_HAL_Driver\stm32h7xx_hal_fdcan.o
#        D:\WorkOther\EBU6\EWARM\EBU6\Obj\Drivers\STM32H7xx_HAL_Driver\stm32h7xx_hal_flash.o
#        D:\WorkOther\EBU6\EWARM\EBU6\Obj\Drivers\STM32H7xx_HAL_Driver\stm32h7xx_hal_flash_ex.o
#        D:\WorkOther\EBU6\EWARM\EBU6\Obj\Drivers\STM32H7xx_HAL_Driver\stm32h7xx_hal_gpio.o
#        D:\WorkOther\EBU6\EWARM\EBU6\Obj\Drivers\STM32H7xx_HAL_Driver\stm32h7xx_hal_hrtim.o
#        D:\WorkOther\EBU6\EWARM\EBU6\Obj\Drivers\STM32H7xx_HAL_Driver\stm32h7xx_hal_hsem.o
#        D:\WorkOther\EBU6\EWARM\EBU6\Obj\Drivers\STM32H7xx_HAL_Driver\stm32h7xx_hal_i2c.o
#        D:\WorkOther\EBU6\EWARM\EBU6\Obj\Drivers\STM32H7xx_HAL_Driver\stm32h7xx_hal_i2c_ex.o
#        D:\WorkOther\EBU6\EWARM\EBU6\Obj\Drivers\STM32H7xx_HAL_Driver\stm32h7xx_hal_mdma.o
#        D:\WorkOther\EBU6\EWARM\EBU6\Obj\Application\User\Core\stm32h7xx_hal_msp.o
#        D:\WorkOther\EBU6\EWARM\EBU6\Obj\Drivers\STM32H7xx_HAL_Driver\stm32h7xx_hal_pwr.o
#        D:\WorkOther\EBU6\EWARM\EBU6\Obj\Drivers\STM32H7xx_HAL_Driver\stm32h7xx_hal_pwr_ex.o
#        D:\WorkOther\EBU6\EWARM\EBU6\Obj\Drivers\STM32H7xx_HAL_Driver\stm32h7xx_hal_rcc.o
#        D:\WorkOther\EBU6\EWARM\EBU6\Obj\Drivers\STM32H7xx_HAL_Driver\stm32h7xx_hal_rcc_ex.o
#        D:\WorkOther\EBU6\EWARM\EBU6\Obj\Drivers\STM32H7xx_HAL_Driver\stm32h7xx_hal_rtc.o
#        D:\WorkOther\EBU6\EWARM\EBU6\Obj\Drivers\STM32H7xx_HAL_Driver\stm32h7xx_hal_rtc_ex.o
#        D:\WorkOther\EBU6\EWARM\EBU6\Obj\Drivers\STM32H7xx_HAL_Driver\stm32h7xx_hal_spi.o
#        D:\WorkOther\EBU6\EWARM\EBU6\Obj\Drivers\STM32H7xx_HAL_Driver\stm32h7xx_hal_spi_ex.o
#        D:\WorkOther\EBU6\EWARM\EBU6\Obj\Drivers\STM32H7xx_HAL_Driver\stm32h7xx_hal_tim.o
#        D:\WorkOther\EBU6\EWARM\EBU6\Obj\Drivers\STM32H7xx_HAL_Driver\stm32h7xx_hal_tim_ex.o
#        D:\WorkOther\EBU6\EWARM\EBU6\Obj\Drivers\STM32H7xx_HAL_Driver\stm32h7xx_hal_uart.o
#        D:\WorkOther\EBU6\EWARM\EBU6\Obj\Drivers\STM32H7xx_HAL_Driver\stm32h7xx_hal_uart_ex.o
#        D:\WorkOther\EBU6\EWARM\EBU6\Obj\Application\User\Core\stm32h7xx_it.o
#        D:\WorkOther\EBU6\EWARM\EBU6\Obj\Drivers\CMSIS\system_stm32h7xx.o
#        --no_out_extension -o D:\WorkOther\EBU6\EWARM\EBU6\Exe\EBU6.out --map
#        D:\WorkOther\EBU6\EWARM\EBU6\List\EBU6.map --config "D:\Distr\IAR
#        Embedded Workbench for ARM v9.10.2 x64\arm\CONFIG\generic_cortex.icf"
#        --semihosting --entry __iar_program_start --vfe --text_out locale)
#
###############################################################################

*******************************************************************************
*** RUNTIME MODEL ATTRIBUTES
***

CppFlavor       = *
__SystemLibrary = DLib
__dlib_version  = 6


*******************************************************************************
*** HEAP SELECTION
***

The basic heap was selected because no calls to memory allocation
functions were found in the application outside of system library
functions, and there are calls to deallocation functions in the
application.


*******************************************************************************
*** PLACEMENT SUMMARY
***

"A0":  place at address 0x0 { ro section .intvec };
"P1":  place in [from 0x0 to 0x7'ffff] { ro };
define block CSTACK with size = 1K, alignment = 8 { };
define block PROC_STACK with size = 0, alignment = 8 { };
define block HEAP with size = 2K, alignment = 8 { };
"P2":  place in [from 0x2000'0000 to 0x2000'ffff] {
          rw, block CSTACK, block PROC_STACK, block HEAP };
initialize by copy { rw };

  Section            Kind         Address      Size  Object
  -------            ----         -------      ----  ------
"A0":                                         0x298
  .intvec            ro code          0x0     0x298  startup_stm32h743xx.o [1]
                                  - 0x298     0x298

"P1":                                      0x1'acf6
  .rodata            const          0x298    0x4ee4  core_Menu.o [4]
  .text              ro code       0x517c    0x22d4  stm32h7xx_hal_dma.o [9]
  .text              ro code       0x7450       0xc  stm32h7xx_hal.o [9]
  .text              ro code       0x745c    0x1b4c  stm32h7xx_hal_rcc_ex.o [9]
  .text              ro code       0x8fa8     0x5f8  stm32h7xx_hal_rcc.o [9]
  .text              ro code       0x95a0      0x1a  U32ToFlt.o [11]
  .text              ro code       0x95bc     0x118  FltDiv.o [11]
  .text              ro code       0x96d4     0x16e  FltAddSub.o [11]
  .text              ro code       0x9844      0xd8  FltMul.o [11]
  .text              ro code       0x991c      0x18  FltToU32.o [11]
  .text              ro code       0x9934      0x58  stm32h7xx_hal.o [9]
  .text              ro code       0x998c     0x190  stm32h7xx_hal_cortex.o [9]
  .text              ro code       0x9b1c    0x185c  core_Menu.o [4]
  .text              ro code       0xb378      0x18  strcpy.o [12]
  .text              ro code       0xb390      0x66  ABImemset.o [12]
  .text              ro code       0xb3f8     0x1f2  add_ValueConv.o [2]
  .text              ro code       0xb5ec      0x36  strlen.o [12]
  .text              ro code       0xb624      0x12  strcmp.o [12]
  .text              ro code       0xb636      0x3e  peref_Clock.o [6]
  .text              ro code       0xb674      0x16  strchr.o [12]
  .text              ro code       0xb68c      0xa6  ABImemcpy.o [12]
  .text              ro code       0xb732      0x32  stat.o [7]
  .text              ro code       0xb764     0x184  g_Ram.o [5]
  .text              ro code       0xb8e8     0x2c4  stat_fm25v10.o [7]
  .text              ro code       0xbbac    0x157c  peref.o [6]
  .text              ro code       0xd128     0x430  stm32h7xx_hal_gpio.o [9]
  .text              ro code       0xd558     0xf6a  stm32h7xx_hal_spi.o [9]
  .text              ro code       0xe4c4    0x1130  main.o [2]
  .text              ro code       0xf5f4     0x3a0  peref_display.o [6]
  .text              ro code       0xf994      0x6e  peref_ApFilter1.o [6]
  .text              ro code       0xfa04     0x2ac  peref_SensObserver.o [6]
  .text              ro code       0xfcb0     0x138  peref_SinObserver.o [6]
  .text              ro code       0xfde8     0x28c  CMS58M.o [6]
  .text              ro code     0x1'0074     0x4ac  peref_Calibs.o [6]
  .text              ro code     0x1'0520     0x95c  stm32h7xx_hal_fdcan.o [9]
  .text              ro code     0x1'0e7c       0x8  labs.o [10]
  .text              ro code     0x1'0e84       0x8  abs.o [10]
  .text              ro code     0x1'0e8c     0x398  stm32h7xx_hal_rtc.o [9]
  .text              ro code     0x1'1224     0xa3c  stm32h7xx_hal_msp.o [2]
  .text              ro code     0x1'1c60       0x2  stm32h7xx_hal_spi.o [9]
  .text              ro code     0x1'1c62       0x2  stm32h7xx_hal_spi.o [9]
  .text              ro code     0x1'1c64       0x2  stm32h7xx_hal_spi.o [9]
  .text              ro code     0x1'1c66       0x2  stm32h7xx_hal_spi.o [9]
  .text              ro code     0x1'1c68      0xa8  stm32h7xx_hal.o [9]
  .text              ro code     0x1'1d10    0x105c  stm32h7xx_hal_adc.o [9]
  .text              ro code     0x1'2d6c    0x1780  g_Core.o [4]
  .text              ro code     0x1'44ec      0x18  comm.o [3]
  .text              ro code     0x1'4504     0x8c8  drv_modbus.o [3]
  .text              ro code     0x1'4dcc     0xd1e  stm32h7xx_hal_tim.o [9]
  .text              ro code     0x1'5aec      0x64  stm32h7xx_hal_pwr_ex.o [9]
  .text              ro code     0x1'5b50      0x14  stm32h7xx_hal_pwr.o [9]
  .text              ro code     0x1'5b64     0x73c  stm32h7xx_hal_rcc.o [9]
  .text              ro code     0x1'62a0     0x174  stm32h7xx_hal_adc_ex.o [9]
  .text              ro code     0x1'6414     0x8ba  stm32h7xx_hal_hrtim.o [9]
  .text              ro code     0x1'6cd0     0x2f4  stm32h7xx_hal_tim_ex.o [9]
  .text              ro code     0x1'6fc4     0xf6c  stm32h7xx_hal_uart.o [9]
  .text              ro code     0x1'7f30     0x16c  stm32h7xx_hal_uart_ex.o [9]
  .text              ro code     0x1'809c      0x48  FltToDbl.o [11]
  .text              ro code     0x1'80e4     0x1aa  DblMul.o [11]
  .text              ro code     0x1'8290      0x1c  U32ToDbl.o [11]
  .text              ro code     0x1'82ac      0x68  DblToFlt.o [11]
  .text              ro code     0x1'8314      0x28  FltCmpGe.o [11]
  .text              ro code     0x1'833c      0x74  sqrtf.o [11]
  .text              ro code     0x1'83b0       0x2  stm32h7xx_hal_adc_ex.o [9]
  .text              ro code     0x1'83b2       0x2  stm32h7xx_hal_adc.o [9]
  .text              ro code     0x1'83b4       0x2  stm32h7xx_hal_adc_ex.o [9]
  .text              ro code     0x1'83b6       0x2  stm32h7xx_hal_adc.o [9]
  .text              ro code     0x1'83b8       0x2  stm32h7xx_hal_adc_ex.o [9]
  .text              ro code     0x1'83ba       0x2  stm32h7xx_hal_adc_ex.o [9]
  .text              ro code     0x1'83bc       0x2  stm32h7xx_hal_adc.o [9]
  .text              ro code     0x1'83be       0x2  stm32h7xx_hal_adc_ex.o [9]
  .text              ro code     0x1'83c0       0x2  stm32h7xx_hal_adc.o [9]
  .text              ro code     0x1'83c4      0xc4  core_Protections.o [4]
  .text              ro code     0x1'8488     0x246  DblDiv.o [11]
  .text              ro code     0x1'86d0     0x5a0  core_VlvDrvCtrl.o [4]
  .text              ro code     0x1'8c70      0x1c  FltCmpEq.o [11]
  .text              ro code     0x1'8c8c      0x24  S32ToFlt.o [11]
  .text              ro code     0x1'8cb0      0x22  S32ToDbl.o [11]
  .text              ro code     0x1'8cd4      0x28  FltCmpLe.o [11]
  .text              ro code     0x1'8cfc     0x25e  DblAddSub.o [11]
  .text              ro code     0x1'8f5c     0x23c  cos_sin32.o [11]
  .text              ro code     0x1'9198      0x2e  fmin.o [11]
  .text              ro code     0x1'91c8      0x2e  fmax.o [11]
  .text              ro code     0x1'91f8      0x22  DblToU32.o [11]
  .text              ro code     0x1'921c      0x26  FltToS32.o [11]
  .text              ro code     0x1'9244      0x34  DblCmpLe.o [11]
  .text              ro code     0x1'9278       0x2  stm32h7xx_hal_tim.o [9]
  .text              ro code     0x1'927a       0x2  stm32h7xx_hal_tim.o [9]
  .text              ro code     0x1'927c       0x2  stm32h7xx_hal_tim.o [9]
  .text              ro code     0x1'927e       0x2  stm32h7xx_hal_tim.o [9]
  .text              ro code     0x1'9280       0x2  stm32h7xx_hal_tim.o [9]
  .text              ro code     0x1'9282       0x2  stm32h7xx_hal_tim_ex.o [9]
  .text              ro code     0x1'9284       0x2  stm32h7xx_hal_tim_ex.o [9]
  .text              ro code     0x1'9286       0x2  stm32h7xx_hal_tim.o [9]
  .text              ro code     0x1'9288       0x2  stm32h7xx_hal_tim_ex.o [9]
  .text              ro code     0x1'928a       0x2  stm32h7xx_hal_uart.o [9]
  .text              ro code     0x1'928c       0x2  stm32h7xx_hal_uart.o [9]
  .text              ro code     0x1'928e       0x2  stm32h7xx_hal_uart_ex.o [9]
  .text              ro code     0x1'9290       0x2  stm32h7xx_hal_uart_ex.o [9]
  .text              ro code     0x1'9292       0x2  stm32h7xx_hal_uart_ex.o [9]
  .text              ro code     0x1'9294     0x230  I64DivMod.o [12]
  .text              ro code     0x1'94c4       0x2  stm32h7xx_hal_uart.o [9]
  .text              ro code     0x1'94c8       0x2  I64DivZer.o [12]
  .rodata            const       0x1'94cc     0xe60  core_Menu.o [4]
  .text              ro code     0x1'a32c     0x1fc  g_InterruptUpdate.o [5]
  .text              ro code     0x1'a528     0x12c  system_stm32h7xx.o [8]
  .text              ro code     0x1'a654      0xf4  stm32h7xx_it.o [2]
  .text              ro code     0x1'a748      0x18  stm32h7xx_hal.o [9]
  .rodata            const       0x1'a760      0xa0  core_Menu.o [4]
  .text              ro code     0x1'a800      0x78  lz77_init_single.o [12]
  .rodata            const       0x1'a878      0x4c  stm32h7xx_hal_fdcan.o [9]
  .text              ro code     0x1'a8c4      0x38  zero_init3.o [12]
  .text              ro code     0x1'a8fc      0x28  data_init.o [12]
  .iar.init_table    const       0x1'a924      0x20  - Linker created -
  .text              ro code     0x1'a944      0x1e  cmain.o [12]
  .text              ro code     0x1'a962       0x4  low_level_init.o [10]
  .text              ro code     0x1'a966       0x4  exit.o [10]
  .text              ro code     0x1'a96c       0xa  cexit.o [12]
  .text              ro code     0x1'a978      0x14  exit.o [13]
  .text              ro code     0x1'a98c      0x1c  cstartup_M.o [12]
  .rodata            const       0x1'a9a8      0x18  stm32h7xx_hal_uart.o [9]
  .rodata            const       0x1'a9c0      0x10  stm32h7xx_hal_fdcan.o [9]
  .rodata            const       0x1'a9d0      0x10  system_stm32h7xx.o [8]
  .text              ro code     0x1'a9e0      0x10  startup_stm32h743xx.o [1]
  .rodata            const       0x1'a9f0       0x8  CMS58M.o [6]
  .rodata            const       0x1'a9f8       0x8  core_Menu.o [4]
  .rodata            const       0x1'aa00       0x8  stm32h7xx_hal_dma.o [9]
  .rodata            const       0x1'aa08       0x8  stm32h7xx_hal_uart_ex.o [9]
  .rodata            const       0x1'aa10       0x8  stm32h7xx_hal_uart_ex.o [9]
  .rodata            const       0x1'aa18       0x4  CMS58M.o [6]
  .text              ro code     0x1'aa1c       0x4  startup_stm32h743xx.o [1]
  .text              ro code     0x1'aa20       0x4  startup_stm32h743xx.o [1]
  .text              ro code     0x1'aa24       0x4  startup_stm32h743xx.o [1]
  .text              ro code     0x1'aa28       0x4  startup_stm32h743xx.o [1]
  .text              ro code     0x1'aa2c       0x4  startup_stm32h743xx.o [1]
  .text              ro code     0x1'aa30       0x4  startup_stm32h743xx.o [1]
  .text              ro code     0x1'aa34       0x4  startup_stm32h743xx.o [1]
  .text              ro code     0x1'aa38       0x4  startup_stm32h743xx.o [1]
  .text              ro code     0x1'aa3c       0x4  startup_stm32h743xx.o [1]
  .text              ro code     0x1'aa40       0x4  startup_stm32h743xx.o [1]
  .text              ro code     0x1'aa44       0x4  startup_stm32h743xx.o [1]
  .text              ro code     0x1'aa48       0x4  startup_stm32h743xx.o [1]
  .text              ro code     0x1'aa4c       0x4  startup_stm32h743xx.o [1]
  .text              ro code     0x1'aa50       0x4  startup_stm32h743xx.o [1]
  .text              ro code     0x1'aa54       0x4  startup_stm32h743xx.o [1]
  .text              ro code     0x1'aa58       0x4  startup_stm32h743xx.o [1]
  .text              ro code     0x1'aa5c       0x4  startup_stm32h743xx.o [1]
  .text              ro code     0x1'aa60       0x4  startup_stm32h743xx.o [1]
  .text              ro code     0x1'aa64       0x4  startup_stm32h743xx.o [1]
  .text              ro code     0x1'aa68       0x4  startup_stm32h743xx.o [1]
  .text              ro code     0x1'aa6c       0x4  startup_stm32h743xx.o [1]
  .text              ro code     0x1'aa70       0x4  startup_stm32h743xx.o [1]
  .text              ro code     0x1'aa74       0x4  startup_stm32h743xx.o [1]
  .text              ro code     0x1'aa78       0x4  startup_stm32h743xx.o [1]
  .text              ro code     0x1'aa7c       0x4  startup_stm32h743xx.o [1]
  .text              ro code     0x1'aa80       0x4  startup_stm32h743xx.o [1]
  .text              ro code     0x1'aa84       0x4  startup_stm32h743xx.o [1]
  .text              ro code     0x1'aa88       0x4  startup_stm32h743xx.o [1]
  .text              ro code     0x1'aa8c       0x4  startup_stm32h743xx.o [1]
  .text              ro code     0x1'aa90       0x4  startup_stm32h743xx.o [1]
  .text              ro code     0x1'aa94       0x4  startup_stm32h743xx.o [1]
  .text              ro code     0x1'aa98       0x4  startup_stm32h743xx.o [1]
  .text              ro code     0x1'aa9c       0x4  startup_stm32h743xx.o [1]
  .text              ro code     0x1'aaa0       0x4  startup_stm32h743xx.o [1]
  .text              ro code     0x1'aaa4       0x4  startup_stm32h743xx.o [1]
  .text              ro code     0x1'aaa8       0x4  startup_stm32h743xx.o [1]
  .text              ro code     0x1'aaac       0x4  startup_stm32h743xx.o [1]
  .text              ro code     0x1'aab0       0x4  startup_stm32h743xx.o [1]
  .text              ro code     0x1'aab4       0x4  startup_stm32h743xx.o [1]
  .text              ro code     0x1'aab8       0x4  startup_stm32h743xx.o [1]
  .text              ro code     0x1'aabc       0x4  startup_stm32h743xx.o [1]
  .text              ro code     0x1'aac0       0x4  startup_stm32h743xx.o [1]
  .text              ro code     0x1'aac4       0x4  startup_stm32h743xx.o [1]
  .text              ro code     0x1'aac8       0x4  startup_stm32h743xx.o [1]
  .text              ro code     0x1'aacc       0x4  startup_stm32h743xx.o [1]
  .text              ro code     0x1'aad0       0x4  startup_stm32h743xx.o [1]
  .text              ro code     0x1'aad4       0x4  startup_stm32h743xx.o [1]
  .text              ro code     0x1'aad8       0x4  startup_stm32h743xx.o [1]
  .text              ro code     0x1'aadc       0x4  startup_stm32h743xx.o [1]
  .text              ro code     0x1'aae0       0x4  startup_stm32h743xx.o [1]
  .text              ro code     0x1'aae4       0x4  startup_stm32h743xx.o [1]
  .text              ro code     0x1'aae8       0x4  startup_stm32h743xx.o [1]
  .text              ro code     0x1'aaec       0x4  startup_stm32h743xx.o [1]
  .text              ro code     0x1'aaf0       0x4  startup_stm32h743xx.o [1]
  .text              ro code     0x1'aaf4       0x4  startup_stm32h743xx.o [1]
  .text              ro code     0x1'aaf8       0x4  startup_stm32h743xx.o [1]
  .text              ro code     0x1'aafc       0x4  startup_stm32h743xx.o [1]
  .text              ro code     0x1'ab00       0x4  startup_stm32h743xx.o [1]
  .text              ro code     0x1'ab04       0x4  startup_stm32h743xx.o [1]
  .text              ro code     0x1'ab08       0x4  startup_stm32h743xx.o [1]
  .text              ro code     0x1'ab0c       0x4  startup_stm32h743xx.o [1]
  .text              ro code     0x1'ab10       0x4  startup_stm32h743xx.o [1]
  .text              ro code     0x1'ab14       0x4  startup_stm32h743xx.o [1]
  .text              ro code     0x1'ab18       0x4  startup_stm32h743xx.o [1]
  .text              ro code     0x1'ab1c       0x4  startup_stm32h743xx.o [1]
  .text              ro code     0x1'ab20       0x4  startup_stm32h743xx.o [1]
  .text              ro code     0x1'ab24       0x4  startup_stm32h743xx.o [1]
  .text              ro code     0x1'ab28       0x4  startup_stm32h743xx.o [1]
  .text              ro code     0x1'ab2c       0x4  startup_stm32h743xx.o [1]
  .text              ro code     0x1'ab30       0x4  startup_stm32h743xx.o [1]
  .text              ro code     0x1'ab34       0x4  startup_stm32h743xx.o [1]
  .text              ro code     0x1'ab38       0x4  startup_stm32h743xx.o [1]
  .text              ro code     0x1'ab3c       0x4  startup_stm32h743xx.o [1]
  .text              ro code     0x1'ab40       0x4  startup_stm32h743xx.o [1]
  .text              ro code     0x1'ab44       0x4  startup_stm32h743xx.o [1]
  .text              ro code     0x1'ab48       0x4  startup_stm32h743xx.o [1]
  .text              ro code     0x1'ab4c       0x4  startup_stm32h743xx.o [1]
  .text              ro code     0x1'ab50       0x4  startup_stm32h743xx.o [1]
  .text              ro code     0x1'ab54       0x4  startup_stm32h743xx.o [1]
  .text              ro code     0x1'ab58       0x4  startup_stm32h743xx.o [1]
  .text              ro code     0x1'ab5c       0x4  startup_stm32h743xx.o [1]
  .text              ro code     0x1'ab60       0x4  startup_stm32h743xx.o [1]
  .text              ro code     0x1'ab64       0x4  startup_stm32h743xx.o [1]
  .text              ro code     0x1'ab68       0x4  startup_stm32h743xx.o [1]
  .text              ro code     0x1'ab6c       0x4  startup_stm32h743xx.o [1]
  .text              ro code     0x1'ab70       0x4  startup_stm32h743xx.o [1]
  .text              ro code     0x1'ab74       0x4  startup_stm32h743xx.o [1]
  .text              ro code     0x1'ab78       0x4  startup_stm32h743xx.o [1]
  .text              ro code     0x1'ab7c       0x4  startup_stm32h743xx.o [1]
  .text              ro code     0x1'ab80       0x4  startup_stm32h743xx.o [1]
  .text              ro code     0x1'ab84       0x4  startup_stm32h743xx.o [1]
  .text              ro code     0x1'ab88       0x4  startup_stm32h743xx.o [1]
  .text              ro code     0x1'ab8c       0x4  startup_stm32h743xx.o [1]
  .text              ro code     0x1'ab90       0x4  startup_stm32h743xx.o [1]
  .text              ro code     0x1'ab94       0x4  startup_stm32h743xx.o [1]
  .text              ro code     0x1'ab98       0x4  startup_stm32h743xx.o [1]
  .text              ro code     0x1'ab9c       0x4  startup_stm32h743xx.o [1]
  .text              ro code     0x1'aba0       0x4  startup_stm32h743xx.o [1]
  .text              ro code     0x1'aba4       0x4  startup_stm32h743xx.o [1]
  .text              ro code     0x1'aba8       0x4  startup_stm32h743xx.o [1]
  .text              ro code     0x1'abac       0x4  startup_stm32h743xx.o [1]
  .text              ro code     0x1'abb0       0x4  startup_stm32h743xx.o [1]
  .text              ro code     0x1'abb4       0x4  startup_stm32h743xx.o [1]
  .text              ro code     0x1'abb8       0x4  startup_stm32h743xx.o [1]
  .text              ro code     0x1'abbc       0x4  startup_stm32h743xx.o [1]
  .text              ro code     0x1'abc0       0x4  startup_stm32h743xx.o [1]
  .text              ro code     0x1'abc4       0x4  startup_stm32h743xx.o [1]
  .text              ro code     0x1'abc8       0x4  startup_stm32h743xx.o [1]
  .text              ro code     0x1'abcc       0x4  startup_stm32h743xx.o [1]
  .text              ro code     0x1'abd0       0x4  startup_stm32h743xx.o [1]
  .text              ro code     0x1'abd4       0x4  startup_stm32h743xx.o [1]
  .text              ro code     0x1'abd8       0x4  startup_stm32h743xx.o [1]
  .text              ro code     0x1'abdc       0x4  startup_stm32h743xx.o [1]
  .text              ro code     0x1'abe0       0x4  startup_stm32h743xx.o [1]
  .text              ro code     0x1'abe4       0x4  startup_stm32h743xx.o [1]
  .text              ro code     0x1'abe8       0x4  startup_stm32h743xx.o [1]
  .text              ro code     0x1'abec       0x4  startup_stm32h743xx.o [1]
  .text              ro code     0x1'abf0       0x4  startup_stm32h743xx.o [1]
  .text              ro code     0x1'abf4       0x4  startup_stm32h743xx.o [1]
  .text              ro code     0x1'abf8       0x4  startup_stm32h743xx.o [1]
  .text              ro code     0x1'abfc       0x4  startup_stm32h743xx.o [1]
  .text              ro code     0x1'ac00       0x4  startup_stm32h743xx.o [1]
  .text              ro code     0x1'ac04       0x4  startup_stm32h743xx.o [1]
  .text              ro code     0x1'ac08       0x4  startup_stm32h743xx.o [1]
  .text              ro code     0x1'ac0c       0x4  startup_stm32h743xx.o [1]
  .text              ro code     0x1'ac10       0x4  startup_stm32h743xx.o [1]
  .text              ro code     0x1'ac14       0x4  startup_stm32h743xx.o [1]
  .text              ro code     0x1'ac18       0x4  startup_stm32h743xx.o [1]
  .text              ro code     0x1'ac1c       0x4  startup_stm32h743xx.o [1]
  .rodata            const       0x1'ac20       0x0  zero_init3.o [12]
  .rodata            const       0x1'ac20       0x0  lz77_init_single.o [12]
  Initializer bytes  const       0x1'ac20     0x36e  <for P2-1>
                               - 0x1'af8e  0x1'acf6

"P2", part 1 of 3:                            0x592
  P2-1                        0x2000'0000     0x592  <Init block>
    .data            inited   0x2000'0000      0x1c  drv_modbus.o [3]
    .data            inited   0x2000'001c       0x4  g_Core.o [4]
    .data            inited   0x2000'0020       0x4  g_Core.o [4]
    .data            inited   0x2000'0024       0x4  g_Core.o [4]
    .data            inited   0x2000'0028       0x4  g_Core.o [4]
    .data            inited   0x2000'002c      0x30  g_InterruptUpdate.o [5]
    .data            inited   0x2000'005c      0x18  g_InterruptUpdate.o [5]
    .data            inited   0x2000'0074      0x30  g_InterruptUpdate.o [5]
    .data            inited   0x2000'00a4      0xf0  g_InterruptUpdate.o [5]
    .data            inited   0x2000'0194      0x84  g_InterruptUpdate.o [5]
    .data            inited   0x2000'0218       0x4  g_InterruptUpdate.o [5]
    .data            inited   0x2000'021c       0x4  g_InterruptUpdate.o [5]
    .data            inited   0x2000'0220       0x4  g_InterruptUpdate.o [5]
    .data            inited   0x2000'0224       0x4  g_InterruptUpdate.o [5]
    .data            inited   0x2000'0228       0x4  g_InterruptUpdate.o [5]
    .data            inited   0x2000'022c       0x4  peref.o [6]
    .data            inited   0x2000'0230       0x4  peref.o [6]
    .data            inited   0x2000'0234     0x108  peref.o [6]
    .data            inited   0x2000'033c     0x108  peref.o [6]
    .data            inited   0x2000'0444      0x40  peref.o [6]
    .data            inited   0x2000'0484      0x24  peref.o [6]
    .data            inited   0x2000'04a8       0x4  peref.o [6]
    .data            inited   0x2000'04ac       0x4  peref.o [6]
    .data            inited   0x2000'04b0       0x4  peref_Calibs.o [6]
    .data            inited   0x2000'04b4      0x70  peref_display.o [6]
    .data            inited   0x2000'0524      0x44  peref_display.o [6]
    .data            inited   0x2000'0568       0x4  stm32h7xx_hal.o [9]
    .data            inited   0x2000'056c      0x18  stm32h7xx_hal_hrtim.o [9]
    .data            inited   0x2000'0584       0x4  system_stm32h7xx.o [8]
    .data            inited   0x2000'0588       0x4  system_stm32h7xx.o [8]
    .data            inited   0x2000'058c       0x1  add_ValueConv.o [2]
    .data            inited   0x2000'058d       0x1  add_ValueConv.o [2]
    .data            inited   0x2000'058e       0x1  add_ValueConv.o [2]
    .data            inited   0x2000'058f       0x1  add_ValueConv.o [2]
    .data            inited   0x2000'0590       0x1  g_Core.o [4]
    .data            inited   0x2000'0591       0x1  stm32h7xx_hal.o [9]
                            - 0x2000'0592     0x592

"P2", part 2 of 3:                           0x2658
  .bss               zero     0x2000'0594     0x8d4  g_Ram.o [5]
  .bss               zero     0x2000'0e68     0x8a8  peref.o [6]
  .bss               zero     0x2000'1710      0x64  drv_modbus.o [3]
  .bss               zero     0x2000'1778     0x568  g_Core.o [4]
  .bss               zero     0x2000'1ce0     0x218  core_Menu.o [4]
  .bss               zero     0x2000'1ef8     0x200  drv_modbus.o [3]
  .bss               zero     0x2000'20f8     0x120  comm.o [3]
  .bss               zero     0x2000'2218      0xdc  main.o [2]
  .bss               zero     0x2000'22f4      0xc0  stat.o [7]
  .bss               zero     0x2000'23b4      0xa0  main.o [2]
  .bss               zero     0x2000'2454      0x90  main.o [2]
  .bss               zero     0x2000'24e4      0x90  main.o [2]
  .bss               zero     0x2000'2574      0x90  main.o [2]
  .bss               zero     0x2000'2604      0x90  main.o [2]
  .bss               zero     0x2000'2694      0x88  main.o [2]
  .bss               zero     0x2000'271c      0x88  main.o [2]
  .bss               zero     0x2000'27a4      0x78  main.o [2]
  .bss               zero     0x2000'281c      0x78  main.o [2]
  .bss               zero     0x2000'2894      0x64  main.o [2]
  .bss               zero     0x2000'28f8      0x64  main.o [2]
  .bss               zero     0x2000'295c      0x4c  main.o [2]
  .bss               zero     0x2000'29a8      0x4c  main.o [2]
  .bss               zero     0x2000'29f4      0x34  g_Core.o [4]
  .bss               zero     0x2000'2a28      0x2c  peref.o [6]
  .bss               zero     0x2000'2a54      0x28  CMS58M.o [6]
  .bss               zero     0x2000'2a7c      0x28  drv_modbus.o [3]
  .bss               zero     0x2000'2aa4      0x24  CMS58M.o [6]
  .bss               zero     0x2000'2ac8      0x24  main.o [2]
  .bss               zero     0x2000'2aec      0x10  peref.o [6]
  .bss               zero     0x2000'2afc       0x4  core_Menu.o [4]
  .bss               zero     0x2000'2b00       0x8  g_Core.o [4]
  .bss               zero     0x2000'2b08       0x8  g_Core.o [4]
  .bss               zero     0x2000'2b10       0x4  core_Menu.o [4]
  .bss               zero     0x2000'2b14       0x4  core_Menu.o [4]
  .bss               zero     0x2000'2b18       0x4  core_Menu.o [4]
  .bss               zero     0x2000'2b1c       0x4  drv_modbus.o [3]
  .bss               zero     0x2000'2b20       0x4  drv_modbus.o [3]
  .bss               zero     0x2000'2b24       0x4  g_Core.o [4]
  .bss               zero     0x2000'2b28       0x4  g_Core.o [4]
  .bss               zero     0x2000'2b2c       0x4  g_Core.o [4]
  .bss               zero     0x2000'2b30       0x4  g_Core.o [4]
  .bss               zero     0x2000'2b34       0x4  g_Core.o [4]
  .bss               zero     0x2000'2b38       0x4  g_Core.o [4]
  .bss               zero     0x2000'2b3c       0x4  g_Core.o [4]
  .bss               zero     0x2000'2b40       0x4  g_Core.o [4]
  .bss               zero     0x2000'2b44       0x4  g_Core.o [4]
  .bss               zero     0x2000'2b48       0x4  g_Core.o [4]
  .bss               zero     0x2000'2b4c       0x4  g_Core.o [4]
  .bss               zero     0x2000'2b50       0x4  g_Core.o [4]
  .bss               zero     0x2000'2b54       0x4  g_Core.o [4]
  .bss               zero     0x2000'2b58       0x4  g_Core.o [4]
  .bss               zero     0x2000'2b5c       0x4  g_Core.o [4]
  .bss               zero     0x2000'2b60       0x4  g_Core.o [4]
  .bss               zero     0x2000'2b64       0x4  g_Core.o [4]
  .bss               zero     0x2000'2b68       0x4  g_Core.o [4]
  .bss               zero     0x2000'2b6c       0x4  g_Core.o [4]
  .bss               zero     0x2000'2b70       0x4  g_InterruptUpdate.o [5]
  .bss               zero     0x2000'2b74       0x4  g_InterruptUpdate.o [5]
  .bss               zero     0x2000'2b78       0x4  g_InterruptUpdate.o [5]
  .bss               zero     0x2000'2b7c       0x4  g_InterruptUpdate.o [5]
  .bss               zero     0x2000'2b80       0x4  g_InterruptUpdate.o [5]
  .bss               zero     0x2000'2b84       0x4  g_InterruptUpdate.o [5]
  .bss               zero     0x2000'2b88       0x4  g_InterruptUpdate.o [5]
  .bss               zero     0x2000'2b8c       0x4  g_InterruptUpdate.o [5]
  .bss               zero     0x2000'2b90       0x4  main.o [2]
  .bss               zero     0x2000'2b94       0x4  peref.o [6]
  .bss               zero     0x2000'2b98       0x4  peref.o [6]
  .bss               zero     0x2000'2b9c       0x4  peref.o [6]
  .bss               zero     0x2000'2ba0       0x4  peref.o [6]
  .bss               zero     0x2000'2ba4       0x4  peref.o [6]
  .bss               zero     0x2000'2ba8       0x4  peref.o [6]
  .bss               zero     0x2000'2bac       0x4  peref.o [6]
  .bss               zero     0x2000'2bb0       0x4  peref.o [6]
  .bss               zero     0x2000'2bb4       0x4  peref.o [6]
  .bss               zero     0x2000'2bb8       0x4  peref.o [6]
  .bss               zero     0x2000'2bbc       0x4  peref.o [6]
  .bss               zero     0x2000'2bc0       0x4  peref.o [6]
  .bss               zero     0x2000'2bc4       0x4  peref.o [6]
  .bss               zero     0x2000'2bc8       0x4  peref.o [6]
  .bss               zero     0x2000'2bcc       0x4  peref.o [6]
  .bss               zero     0x2000'2bd0       0x4  peref.o [6]
  .bss               zero     0x2000'2bd4       0x4  peref_Calibs.o [6]
  .bss               zero     0x2000'2bd8       0x4  stm32h7xx_hal.o [9]
  .bss               zero     0x2000'2bdc       0x4  stm32h7xx_it.o [2]
  .bss               zero     0x2000'2be0       0x2  peref.o [6]
  .bss               zero     0x2000'2be2       0x2  peref.o [6]
  .bss               zero     0x2000'2be4       0x1  CMS58M.o [6]
  .bss               zero     0x2000'2be5       0x1  CMS58M.o [6]
  .bss               zero     0x2000'2be6       0x1  core_Protections.o [4]
  .bss               zero     0x2000'2be7       0x1  core_VlvDrvCtrl.o [4]
  .bss               zero     0x2000'2be8       0x1  drv_modbus.o [3]
  .bss               zero     0x2000'2be9       0x1  g_Core.o [4]
  .bss               zero     0x2000'2bea       0x1  peref.o [6]
                            - 0x2000'2beb    0x2657

"P2", part 3 of 3:                            0x400
  CSTACK                      0x2000'2bf0     0x400  <Block>
    CSTACK           uninit   0x2000'2bf0     0x400  <Block tail>
                            - 0x2000'2ff0     0x400

Unused ranges:

         From           To      Size
         ----           --      ----
     0x1'af8e     0x7'ffff  0x6'5072
  0x2000'0592  0x2000'0593       0x2
  0x2000'2bec  0x2000'2bef       0x4
  0x2000'2ff0  0x2000'ffff    0xd010


*******************************************************************************
*** INIT TABLE
***

          Address      Size
          -------      ----
Zero (__iar_zero_init3)
    1 destination range, total size 0x2657:
          0x2000'0594  0x2657

Copy/lz77 (__iar_lz77_init_single3)
    1 source range, total size 0x36e (61% of destination):
             0x1'ac20   0x36e
    1 destination range, total size 0x592:
          0x2000'0000   0x592



*******************************************************************************
*** MODULE SUMMARY
***

    Module                   ro code  ro data  rw data
    ------                   -------  -------  -------
command line/config:
    --------------------------------------------------
    Total:

D:\WorkOther\EBU6\EWARM\EBU6\Obj\Application\EWARM: [1]
    startup_stm32h743xx.o      1'196
    --------------------------------------------------
    Total:                     1'196

D:\WorkOther\EBU6\EWARM\EBU6\Obj\Application\User\Core: [2]
    add_ValueConv.o              498        2        4
    main.o                     4'400             1'860
    stm32h7xx_hal_msp.o        2'620
    stm32h7xx_it.o               244                 4
    --------------------------------------------------
    Total:                     7'762        2    1'868

D:\WorkOther\EBU6\EWARM\EBU6\Obj\Application\User\Core\Comm: [3]
    comm.o                        24               288
    drv_modbus.o               2'248       17      689
    --------------------------------------------------
    Total:                     2'272       17      977

D:\WorkOther\EBU6\EWARM\EBU6\Obj\Application\User\Core\Core: [4]
    core_Menu.o                6'236   24'044      552
    core_Protections.o           196                 1
    core_VlvDrvCtrl.o          1'440                 1
    g_Core.o                   6'016       11    1'546
    --------------------------------------------------
    Total:                    13'888   24'055    2'100

D:\WorkOther\EBU6\EWARM\EBU6\Obj\Application\User\Core\Global: [5]
    g_InterruptUpdate.o          508      315      544
    g_Ram.o                      388             2'260
    --------------------------------------------------
    Total:                       896      315    2'804

D:\WorkOther\EBU6\EWARM\EBU6\Obj\Application\User\Core\Peref: [6]
    CMS58M.o                     652       12       78
    peref.o                    5'500      396    2'989
    peref_ApFilter1.o            110
    peref_Calibs.o             1'196        3        8
    peref_Clock.o                 62
    peref_SensObserver.o         684
    peref_SinObserver.o          312
    peref_display.o              928      111      180
    --------------------------------------------------
    Total:                     9'444      522    3'255

D:\WorkOther\EBU6\EWARM\EBU6\Obj\Application\User\Core\Stat: [7]
    stat.o                        50               192
    stat_fm25v10.o               708
    --------------------------------------------------
    Total:                       758               192

D:\WorkOther\EBU6\EWARM\EBU6\Obj\Drivers\CMSIS: [8]
    system_stm32h7xx.o           300       21        8
    --------------------------------------------------
    Total:                       300       21        8

D:\WorkOther\EBU6\EWARM\EBU6\Obj\Drivers\STM32H7xx_HAL_Driver: [9]
    stm32h7xx_hal.o              292        2        9
    stm32h7xx_hal_adc.o        4'196
    stm32h7xx_hal_adc_ex.o       382
    stm32h7xx_hal_cortex.o       400
    stm32h7xx_hal_dma.o        8'916        8
    stm32h7xx_hal_fdcan.o      2'396       92
    stm32h7xx_hal_gpio.o       1'072
    stm32h7xx_hal_hrtim.o      2'234       15       24
    stm32h7xx_hal_pwr.o           20
    stm32h7xx_hal_pwr_ex.o       100
    stm32h7xx_hal_rcc.o        3'380
    stm32h7xx_hal_rcc_ex.o     6'988
    stm32h7xx_hal_rtc.o          920
    stm32h7xx_hal_spi.o        3'954
    stm32h7xx_hal_tim.o        3'370
    stm32h7xx_hal_tim_ex.o       762
    stm32h7xx_hal_uart.o       3'954       24
    stm32h7xx_hal_uart_ex.o      370       16
    --------------------------------------------------
    Total:                    43'706      157       33

dl7M_tln.a: [10]
    abs.o                          8
    exit.o                         4
    labs.o                         8
    low_level_init.o               4
    --------------------------------------------------
    Total:                        24

m7M_tl.a: [11]
    DblAddSub.o                  606
    DblCmpLe.o                    52
    DblDiv.o                     582
    DblMul.o                     426
    DblToFlt.o                   104
    DblToU32.o                    34
    FltAddSub.o                  366
    FltCmpEq.o                    28
    FltCmpGe.o                    40
    FltCmpLe.o                    40
    FltDiv.o                     280
    FltMul.o                     216
    FltToDbl.o                    72
    FltToS32.o                    38
    FltToU32.o                    24
    S32ToDbl.o                    34
    S32ToFlt.o                    36
    U32ToDbl.o                    28
    U32ToFlt.o                    26
    cos_sin32.o                  572
    fmax.o                        46
    fmin.o                        46
    sqrtf.o                      116
    --------------------------------------------------
    Total:                     3'812

rt7M_tl.a: [12]
    ABImemcpy.o                  166
    ABImemset.o                  102
    I64DivMod.o                  560
    I64DivZer.o                    2
    cexit.o                       10
    cmain.o                       30
    cstartup_M.o                  28
    data_init.o                   40
    lz77_init_single.o           120
    strchr.o                      22
    strcmp.o                      18
    strcpy.o                      24
    strlen.o                      54
    zero_init3.o                  56
    --------------------------------------------------
    Total:                     1'232

shb_l.a: [13]
    exit.o                        20
    --------------------------------------------------
    Total:                        20

    Gaps                          44        2        4
    Linker created                         33    1'024
------------------------------------------------------
    Grand Total:              85'354   25'124   12'265


*******************************************************************************
*** ENTRY LIST
***

Entry                       Address    Size  Type      Object
-----                       -------    ----  ----      ------
.iar.init_table$$Base      0x1'a924           --   Gb  - Linker created -
.iar.init_table$$Limit     0x1'a944           --   Gb  - Linker created -
?main                      0x1'a945          Code  Gb  cmain.o [12]
ADC3_IRQHandler            0x1'a70b     0xa  Code  Gb  stm32h7xx_it.o [2]
ADC_ConfigureBoostMode     0x1'2bd9   0x158  Code  Gb  stm32h7xx_hal_adc.o [9]
ADC_DMAConvCplt            0x1'2b25    0x88  Code  Gb  stm32h7xx_hal_adc.o [9]
ADC_DMAError               0x1'2bbb    0x1e  Code  Gb  stm32h7xx_hal_adc.o [9]
ADC_DMAHalfConvCplt        0x1'2bad     0xe  Code  Gb  stm32h7xx_hal_adc.o [9]
ADC_Enable                 0x1'2a59    0xbc  Code  Gb  stm32h7xx_hal_adc.o [9]
ADC_IRQHandler             0x1'a681     0xa  Code  Gb  stm32h7xx_it.o [2]
ADS1118_init                 0xcd0f    0xbc  Code  Gb  peref.o [6]
ADS1118_update               0xcddd    0x60  Code  Gb  peref.o [6]
AngleInterp                0x1'4289   0x20a  Code  Gb  g_Core.o [4]
BaudRates               0x2000'0000    0x1c  Data  Lc  drv_modbus.o [3]
BtnLevel                0x2000'0230     0x4  Data  Gb  peref.o [6]
BtnTout                 0x2000'022c     0x4  Data  Gb  peref.o [6]
BusFault_Handler           0x1'a65b     0x2  Code  Gb  stm32h7xx_it.o [2]
ByteToStr                    0xb4f9    0x1e  Code  Gb  add_ValueConv.o [2]
CAN1RxMsg               0x2000'2be4     0x1  Data  Gb  CMS58M.o [6]
CAN1TxMsg               0x2000'2be5     0x1  Data  Gb  CMS58M.o [6]
CPU_led_timer           0x2000'2bdc     0x4  Data  Gb  stm32h7xx_it.o [2]
CSTACK$$Base            0x2000'2bf0           --   Gb  - Linker created -
CSTACK$$Limit           0x2000'2ff0           --   Gb  - Linker created -
CalcBufCRC                 0x1'4d0f    0x2a  Code  Gb  drv_modbus.o [3]
CalcCRC                    0x1'4ce9    0x26  Code  Gb  drv_modbus.o [3]
CalcClbCycle               0x1'03f7    0x70  Code  Gb  peref_Calibs.o [6]
CalcClbGearInv             0x1'00fd    0x14  Code  Gb  peref_Calibs.o [6]
CalcClbGearRev             0x1'0111    0x18  Code  Gb  peref_Calibs.o [6]
CalcTout                   0x1'4d39    0x1c  Code  Gb  drv_modbus.o [3]
ChangeCoordinate             0xa6b5   0x194  Code  Lc  core_Menu.o [4]
CheckRange                   0xb3f9    0x22  Code  Gb  add_ValueConv.o [2]
CheckStatus                0x1'03db    0x1c  Code  Lc  peref_Calibs.o [6]
Cms58mConfig                 0xfe0d    0x50  Code  Gb  CMS58M.o [6]
Cms58mInir                   0xfde9    0x24  Code  Gb  CMS58M.o [6]
Cms58mRxHandler              0xfe6b    0x2c  Code  Gb  CMS58M.o [6]
Cms58mStart                  0xfe5d     0xe  Code  Gb  CMS58M.o [6]
Comm_50HzCalc              0x1'4501     0x2  Code  Gb  comm.o [3]
Comm_CommandUpdate         0x1'4503     0x2  Code  Gb  comm.o [3]
Comm_Init                  0x1'44ed     0x2  Code  Gb  comm.o [3]
Comm_Update                0x1'44ef     0xc  Code  Gb  comm.o [3]
Core_CalibControl          0x1'2f8d   0x148  Code  Gb  g_Core.o [4]
Core_CalibStop             0x1'2ef3    0x9a  Code  Gb  g_Core.o [4]
Core_ControlMode           0x1'3471    0x32  Code  Gb  g_Core.o [4]
Core_Init                  0x1'2d6d   0x186  Code  Gb  g_Core.o [4]
Core_MENU_Display            0x9eb5    0x88  Code  Gb  core_Menu.o [4]
Core_MenuInit                0x9b1d   0x336  Code  Gb  core_Menu.o [4]
Core_MenuReadDcr             0xaf4d    0x6e  Code  Gb  core_Menu.o [4]
Core_MenuUpdate              0x9e69    0x4c  Code  Gb  core_Menu.o [4]
Core_Protections18kHzUpdate
                           0x1'841b    0x60  Code  Gb  core_Protections.o [4]
Core_Protections50HZUpdate
                           0x1'840b    0x10  Code  Gb  core_Protections.o [4]
Core_ProtectionsClear      0x1'83f9    0x12  Code  Gb  core_Protections.o [4]
Core_ProtectionsEnable     0x1'83cb    0x2e  Code  Gb  core_Protections.o [4]
Core_ProtectionsEnable::State
                        0x2000'2be6     0x1  Data  Lc  core_Protections.o [4]
Core_ProtectionsInit       0x1'83c5     0x6  Code  Gb  core_Protections.o [4]
Core_SetDeff                 0xb077    0xd4  Code  Gb  core_Menu.o [4]
Core_ValveDriveInit        0x1'86d1    0x96  Code  Gb  core_VlvDrvCtrl.o [4]
Core_ValveDriveMove        0x1'87cb    0x94  Code  Gb  core_VlvDrvCtrl.o [4]
Core_ValveDriveStop        0x1'8767    0x34  Code  Gb  core_VlvDrvCtrl.o [4]
Core_ValveDriveUpdate      0x1'879b    0x30  Code  Gb  core_VlvDrvCtrl.o [4]
CrcTable                0x2000'1ef8   0x200  Data  Gb  drv_modbus.o [3]
CyclicTimer                0x1'a9f0     0x8  Data  Gb  CMS58M.o [6]
D1CorePrescTable           0x1'a9d0    0x10  Data  Gb  system_stm32h7xx.o [8]
DAC_tmp                 0x2000'2bb0     0x4  Data  Gb  peref.o [6]
DAC_tmp_16              0x2000'2be2     0x2  Data  Gb  peref.o [6]
DISPL_AddSymb                0xf69d    0x36  Code  Gb  peref_display.o [6]
DISPL_Update                 0xf66f    0x2e  Code  Gb  peref_display.o [6]
DISPL_init                   0xf5f5    0x3e  Code  Gb  peref_display.o [6]
DLCtoBytes                 0x1'a9c0    0x10  Data  Lc  stm32h7xx_hal_fdcan.o [9]
DMA1_Stream1_IRQHandler
                           0x1'a66d     0xa  Code  Gb  stm32h7xx_it.o [2]
DMA1_Stream3_IRQHandler
                           0x1'a677     0xa  Code  Gb  stm32h7xx_it.o [2]
DMA_CalcBaseAndBitshift
                             0x710b    0xd2  Code  Lc  stm32h7xx_hal_dma.o [9]
DMA_CalcBaseAndBitshift{1}{2}::flagBitshiftOffset
                           0x1'aa00     0x8  Data  Lc  stm32h7xx_hal_dma.o [9]
DMA_CalcDMAMUXChannelBaseAndMask
                             0x729b    0xac  Code  Lc  stm32h7xx_hal_dma.o [9]
DMA_CalcDMAMUXRequestGenBaseAndMask
                             0x7347    0x80  Code  Lc  stm32h7xx_hal_dma.o [9]
DMA_CheckFifoParam           0x7201    0x9a  Code  Lc  stm32h7xx_hal_dma.o [9]
DMA_SetConfig                0x6ea5   0x266  Code  Lc  stm32h7xx_hal_dma.o [9]
DateSeparator           0x2000'058f     0x1  Data  Gb  add_ValueConv.o [2]
DateToStr                    0xb53f    0x3e  Code  Gb  add_ValueConv.o [2]
DebugMon_Handler           0x1'a661     0x2  Code  Gb  stm32h7xx_it.o [2]
DecToStr                     0xb41b    0xde  Code  Gb  add_ValueConv.o [2]
DefineBit                    0xa9e1    0x5c  Code  Gb  core_Menu.o [4]
DisplayOff                   0xf70f    0x34  Code  Gb  peref_display.o [6]
DisplayOn                    0xf743    0xc4  Code  Gb  peref_display.o [6]
DisplayPutText               0xf807    0x60  Code  Gb  peref_display.o [6]
DisplayRestart               0xf6d3    0x3c  Code  Gb  peref_display.o [6]
DisplayStart                 0xf947    0x2c  Code  Gb  peref_display.o [6]
DriveClose                 0x1'8b17    0x92  Code  Gb  core_VlvDrvCtrl.o [4]
DriveOpen                  0x1'8ba9    0x98  Code  Gb  core_VlvDrvCtrl.o [4]
DriveStop                  0x1'8b07    0x10  Code  Gb  core_VlvDrvCtrl.o [4]
DynBreakMode               0x1'3581    0x6c  Code  Lc  g_Core.o [4]
EditBin                      0xa697    0x1e  Code  Gb  core_Menu.o [4]
EditDate                     0xa545   0x152  Code  Gb  core_Menu.o [4]
EditDec                      0xa211   0x186  Code  Gb  core_Menu.o [4]
EditParam                    0xa113    0xfe  Code  Gb  core_Menu.o [4]
EditStr                      0xa397    0xe0  Code  Gb  core_Menu.o [4]
EditTime                     0xa477    0xce  Code  Gb  core_Menu.o [4]
Eeprom1                 0x2000'29f4    0x34  Data  Gb  g_Core.o [4]
EnableEdit                   0xb043    0x34  Code  Gb  core_Menu.o [4]
EncodeData                   0xf92b    0x1c  Code  Gb  peref_display.o [6]
Error_Handler                0xf5f1     0x4  Code  Gb  main.o [2]
FDCANStatus             0x2000'2a28    0x2c  Data  Gb  peref.o [6]
FDCAN_CalcultateRamBlockAddresses
                           0x1'0bcd   0x208  Code  Lc  stm32h7xx_hal_fdcan.o [9]
FDCAN_CopyMessageToRAM     0x1'0dd5    0x9a  Code  Lc  stm32h7xx_hal_fdcan.o [9]
FDCANerrCount           0x2000'2aec    0x10  Data  Gb  peref.o [6]
FM25V10_Init                 0xb8e9    0x3e  Code  Gb  stat_fm25v10.o [7]
FM25V10_ReadByte             0xba91    0x58  Code  Gb  stat_fm25v10.o [7]
FM25V10_ReadSN               0xbb63    0x3e  Code  Gb  stat_fm25v10.o [7]
FM25V10_ReadStatus           0xba55    0x3c  Code  Gb  stat_fm25v10.o [7]
FM25V10_Update               0xb927   0x12e  Code  Gb  stat_fm25v10.o [7]
FM25V10_WriteByte            0xbae9    0x4e  Code  Gb  stat_fm25v10.o [7]
FM25V10_WriteEnable          0xbb37    0x2c  Code  Gb  stat_fm25v10.o [7]
Flag                    0x2000'2be7     0x1  Data  Gb  core_VlvDrvCtrl.o [4]
FloatPositive           0x2000'058d     0x1  Data  Gb  add_ValueConv.o [2]
FloatSeparator          0x2000'058c     0x1  Data  Gb  add_ValueConv.o [2]
GenCrcTable                0x1'4ca1    0x48  Code  Gb  drv_modbus.o [3]
GetActiveControls          0x1'885f    0xf6  Code  Gb  core_VlvDrvCtrl.o [4]
GoToLocalFLag           0x2000'2b40     0x4  Data  Gb  g_Core.o [4]
HAL_ADCEx_EndOfSamplingCallback
                           0x1'83b1     0x2  Code  Gb  stm32h7xx_hal_adc_ex.o [9]
HAL_ADCEx_InjectedConvCpltCallback
                           0x1'83b5     0x2  Code  Gb  stm32h7xx_hal_adc_ex.o [9]
HAL_ADCEx_InjectedQueueOverflowCallback
                           0x1'83bf     0x2  Code  Gb  stm32h7xx_hal_adc_ex.o [9]
HAL_ADCEx_LevelOutOfWindow2Callback
                           0x1'83b9     0x2  Code  Gb  stm32h7xx_hal_adc_ex.o [9]
HAL_ADCEx_LevelOutOfWindow3Callback
                           0x1'83bb     0x2  Code  Gb  stm32h7xx_hal_adc_ex.o [9]
HAL_ADCEx_MultiModeConfigChannel
                           0x1'62b3   0x148  Code  Gb  stm32h7xx_hal_adc_ex.o [9]
HAL_ADC_ConfigChannel      0x1'2595   0x4a6  Code  Gb  stm32h7xx_hal_adc.o [9]
HAL_ADC_ConvCpltCallback
                           0x1'83b3     0x2  Code  Gb  stm32h7xx_hal_adc.o [9]
HAL_ADC_ConvHalfCpltCallback
                           0x1'83c1     0x2  Code  Gb  stm32h7xx_hal_adc.o [9]
HAL_ADC_ErrorCallback      0x1'83bd     0x2  Code  Gb  stm32h7xx_hal_adc.o [9]
HAL_ADC_IRQHandler         0x1'2275   0x31a  Code  Gb  stm32h7xx_hal_adc.o [9]
HAL_ADC_Init               0x1'1eaf   0x27e  Code  Gb  stm32h7xx_hal_adc.o [9]
HAL_ADC_LevelOutOfWindowCallback
                           0x1'83b7     0x2  Code  Gb  stm32h7xx_hal_adc.o [9]
HAL_ADC_MspInit            0x1'126f   0x268  Code  Gb  stm32h7xx_hal_msp.o [2]
HAL_ADC_Start_DMA          0x1'2139   0x112  Code  Gb  stm32h7xx_hal_adc.o [9]
HAL_DMA_Abort                0x5b09   0x47c  Code  Gb  stm32h7xx_hal_dma.o [9]
HAL_DMA_Abort_IT             0x5fe1   0x39e  Code  Gb  stm32h7xx_hal_dma.o [9]
HAL_DMA_IRQHandler           0x63e5   0xa7a  Code  Gb  stm32h7xx_hal_dma.o [9]
HAL_DMA_Init                 0x517d   0x532  Code  Gb  stm32h7xx_hal_dma.o [9]
HAL_DMA_Start_IT             0x5719   0x3ea  Code  Gb  stm32h7xx_hal_dma.o [9]
HAL_FDCAN_AddMessageToTxBuffer
                           0x1'08bb    0x8e  Code  Gb  stm32h7xx_hal_fdcan.o [9]
HAL_FDCAN_AddMessageToTxFifoQ
                           0x1'0833    0x88  Code  Gb  stm32h7xx_hal_fdcan.o [9]
HAL_FDCAN_EnableTxBufferRequest
                           0x1'0949    0x24  Code  Gb  stm32h7xx_hal_fdcan.o [9]
HAL_FDCAN_GetErrorCounters
                           0x1'0ba5    0x22  Code  Gb  stm32h7xx_hal_fdcan.o [9]
HAL_FDCAN_GetProtocolStatus
                           0x1'0b59    0x4c  Code  Gb  stm32h7xx_hal_fdcan.o [9]
HAL_FDCAN_GetRxMessage     0x1'096d   0x1e6  Code  Gb  stm32h7xx_hal_fdcan.o [9]
HAL_FDCAN_Init             0x1'0521   0x2d8  Code  Gb  stm32h7xx_hal_fdcan.o [9]
HAL_FDCAN_MspInit          0x1'14d7    0xa2  Code  Gb  stm32h7xx_hal_msp.o [2]
HAL_FDCAN_Start            0x1'07fd    0x36  Code  Gb  stm32h7xx_hal_fdcan.o [9]
HAL_GPIO_DeInit              0xd35b   0x17c  Code  Gb  stm32h7xx_hal_gpio.o [9]
HAL_GPIO_Init                0xd129   0x232  Code  Gb  stm32h7xx_hal_gpio.o [9]
HAL_GPIO_ReadPin             0xd4d7    0x16  Code  Gb  stm32h7xx_hal_gpio.o [9]
HAL_GPIO_TogglePin           0xd507    0x1a  Code  Gb  stm32h7xx_hal_gpio.o [9]
HAL_GPIO_WritePin            0xd4ed    0x1a  Code  Gb  stm32h7xx_hal_gpio.o [9]
HAL_GetREVID               0x1'1cc7     0xa  Code  Gb  stm32h7xx_hal.o [9]
HAL_GetTick                  0x7451     0xc  Code  Gb  stm32h7xx_hal.o [9]
HAL_HRTIM_Init             0x1'6415   0x126  Code  Gb  stm32h7xx_hal_hrtim.o [9]
HAL_HRTIM_MspInit          0x1'1579    0x56  Code  Gb  stm32h7xx_hal_msp.o [2]
HAL_HRTIM_MspPostInit      0x1'15cf    0x5e  Code  Gb  stm32h7xx_hal_msp.o [2]
HAL_HRTIM_SimplePWMStart
                           0x1'6581    0x4e  Code  Gb  stm32h7xx_hal_hrtim.o [9]
HAL_HRTIM_TimeBaseConfig
                           0x1'653b    0x3c  Code  Gb  stm32h7xx_hal_hrtim.o [9]
HAL_HRTIM_WaveformCompareConfig
                           0x1'666d   0x236  Code  Gb  stm32h7xx_hal_hrtim.o [9]
HAL_HRTIM_WaveformOutputConfig
                           0x1'68a3    0x4a  Code  Gb  stm32h7xx_hal_hrtim.o [9]
HAL_HRTIM_WaveformTimerConfig
                           0x1'65d5    0x98  Code  Gb  stm32h7xx_hal_hrtim.o [9]
HAL_IncTick                0x1'a749    0x18  Code  Gb  stm32h7xx_hal.o [9]
HAL_Init                   0x1'1c69    0x5e  Code  Gb  stm32h7xx_hal.o [9]
HAL_InitTick                 0x9935    0x58  Code  Gb  stm32h7xx_hal.o [9]
HAL_MspInit                0x1'1225    0x4a  Code  Gb  stm32h7xx_hal_msp.o [2]
HAL_NVIC_DisableIRQ          0x9adf     0xe  Code  Gb  stm32h7xx_hal_cortex.o [9]
HAL_NVIC_EnableIRQ           0x9ad1     0xe  Code  Gb  stm32h7xx_hal_cortex.o [9]
HAL_NVIC_SetPriority         0x9aad    0x24  Code  Gb  stm32h7xx_hal_cortex.o [9]
HAL_NVIC_SetPriorityGrouping
                             0x9aa1     0xc  Code  Gb  stm32h7xx_hal_cortex.o [9]
HAL_PWREx_ConfigSupply     0x1'5aed    0x5c  Code  Gb  stm32h7xx_hal_pwr_ex.o [9]
HAL_PWR_EnableBkUpAccess
                           0x1'5b51     0xe  Code  Gb  stm32h7xx_hal_pwr.o [9]
HAL_RCCEx_GetD3PCLK1Freq
                             0x8615    0x1e  Code  Gb  stm32h7xx_hal_rcc_ex.o [9]
HAL_RCCEx_GetPLL1ClockFreq
                             0x8acd   0x23e  Code  Gb  stm32h7xx_hal_rcc_ex.o [9]
HAL_RCCEx_GetPLL2ClockFreq
                             0x8633   0x236  Code  Gb  stm32h7xx_hal_rcc_ex.o [9]
HAL_RCCEx_GetPLL3ClockFreq
                             0x887d   0x236  Code  Gb  stm32h7xx_hal_rcc_ex.o [9]
HAL_RCCEx_GetPeriphCLKFreq
                             0x7f8d   0x688  Code  Gb  stm32h7xx_hal_rcc_ex.o [9]
HAL_RCCEx_PeriphCLKConfig
                             0x745d   0xb0c  Code  Gb  stm32h7xx_hal_rcc_ex.o [9]
HAL_RCC_ClockConfig          0x8fa9   0x306  Code  Gb  stm32h7xx_hal_rcc.o [9]
HAL_RCC_GetHCLKFreq          0x94df    0x3c  Code  Gb  stm32h7xx_hal_rcc.o [9]
HAL_RCC_GetPCLK1Freq         0x951b    0x1a  Code  Gb  stm32h7xx_hal_rcc.o [9]
HAL_RCC_GetPCLK2Freq         0x9535    0x1a  Code  Gb  stm32h7xx_hal_rcc.o [9]
HAL_RCC_GetSysClockFreq
                             0x92af   0x230  Code  Gb  stm32h7xx_hal_rcc.o [9]
HAL_RCC_OscConfig          0x1'5b65   0x73c  Code  Gb  stm32h7xx_hal_rcc.o [9]
HAL_RTC_GetDate            0x1'10b5    0x52  Code  Gb  stm32h7xx_hal_rtc.o [9]
HAL_RTC_GetTime            0x1'0f83    0x66  Code  Gb  stm32h7xx_hal_rtc.o [9]
HAL_RTC_SetDate            0x1'0fe9    0xcc  Code  Gb  stm32h7xx_hal_rtc.o [9]
HAL_RTC_SetTime            0x1'0e8d    0xf6  Code  Gb  stm32h7xx_hal_rtc.o [9]
HAL_RTC_WaitForSynchro     0x1'1107    0x34  Code  Gb  stm32h7xx_hal_rtc.o [9]
HAL_SPI_DeInit               0xd6db    0x3a  Code  Gb  stm32h7xx_hal_spi.o [9]
HAL_SPI_ErrorCallback      0x1'1c61     0x2  Code  Gb  stm32h7xx_hal_spi.o [9]
HAL_SPI_IRQHandler           0xe0e5   0x28c  Code  Gb  stm32h7xx_hal_spi.o [9]
HAL_SPI_Init                 0xd559   0x182  Code  Gb  stm32h7xx_hal_spi.o [9]
HAL_SPI_MspDeInit          0x1'17a9    0x6a  Code  Gb  stm32h7xx_hal_msp.o [2]
HAL_SPI_MspInit            0x1'162d   0x17c  Code  Gb  stm32h7xx_hal_msp.o [2]
HAL_SPI_Receive              0xd9d1   0x2c2  Code  Gb  stm32h7xx_hal_spi.o [9]
HAL_SPI_RxCpltCallback     0x1'1c65     0x2  Code  Gb  stm32h7xx_hal_spi.o [9]
HAL_SPI_Transmit             0xd715   0x2bc  Code  Gb  stm32h7xx_hal_spi.o [9]
HAL_SPI_TransmitReceive
                             0xdc93   0x444  Code  Gb  stm32h7xx_hal_spi.o [9]
HAL_SPI_TxCpltCallback     0x1'1c67     0x2  Code  Gb  stm32h7xx_hal_spi.o [9]
HAL_SPI_TxRxCpltCallback
                           0x1'1c63     0x2  Code  Gb  stm32h7xx_hal_spi.o [9]
HAL_SYSCFG_DisableVREFBUF
                           0x1'1ce5    0x12  Code  Gb  stm32h7xx_hal.o [9]
HAL_SYSCFG_VREFBUF_HighImpedanceConfig
                           0x1'1cd1    0x14  Code  Gb  stm32h7xx_hal.o [9]
HAL_SYSTICK_Config           0x9aed     0xc  Code  Gb  stm32h7xx_hal_cortex.o [9]
HAL_TIMEx_Break2Callback
                           0x1'9285     0x2  Code  Gb  stm32h7xx_hal_tim_ex.o [9]
HAL_TIMEx_BreakCallback
                           0x1'9283     0x2  Code  Gb  stm32h7xx_hal_tim_ex.o [9]
HAL_TIMEx_CommutCallback
                           0x1'9289     0x2  Code  Gb  stm32h7xx_hal_tim_ex.o [9]
HAL_TIMEx_ConfigBreakDeadTime
                           0x1'6ef5    0x94  Code  Gb  stm32h7xx_hal_tim_ex.o [9]
HAL_TIMEx_MasterConfigSynchronization
                           0x1'6e57    0x9e  Code  Gb  stm32h7xx_hal_tim_ex.o [9]
HAL_TIMEx_PWMN_Start       0x1'6cd1    0xea  Code  Gb  stm32h7xx_hal_tim_ex.o [9]
HAL_TIMEx_PWMN_Stop        0x1'6dc9    0x8e  Code  Gb  stm32h7xx_hal_tim_ex.o [9]
HAL_TIM_Base_Init          0x1'4dcd    0x7a  Code  Gb  stm32h7xx_hal_tim.o [9]
HAL_TIM_Base_MspInit       0x1'1813    0x66  Code  Gb  stm32h7xx_hal_msp.o [2]
HAL_TIM_Base_Start         0x1'4e47    0x8c  Code  Gb  stm32h7xx_hal_tim.o [9]
HAL_TIM_Base_Start_IT      0x1'4ed3    0x98  Code  Gb  stm32h7xx_hal_tim.o [9]
HAL_TIM_ConfigClockSource
                           0x1'555f   0x112  Code  Gb  stm32h7xx_hal_tim.o [9]
HAL_TIM_IC_CaptureCallback
                           0x1'927b     0x2  Code  Gb  stm32h7xx_hal_tim.o [9]
HAL_TIM_IRQHandler         0x1'5271   0x194  Code  Gb  stm32h7xx_hal_tim.o [9]
HAL_TIM_MspPostInit        0x1'1879    0x5e  Code  Gb  stm32h7xx_hal_msp.o [2]
HAL_TIM_OC_DelayElapsedCallback
                           0x1'927d     0x2  Code  Gb  stm32h7xx_hal_tim.o [9]
HAL_TIM_PWM_ConfigChannel
                           0x1'5405   0x15a  Code  Gb  stm32h7xx_hal_tim.o [9]
HAL_TIM_PWM_Init           0x1'4f89    0x7a  Code  Gb  stm32h7xx_hal_tim.o [9]
HAL_TIM_PWM_MspInit        0x1'9279     0x2  Code  Gb  stm32h7xx_hal_tim.o [9]
HAL_TIM_PWM_PulseFinishedCallback
                           0x1'927f     0x2  Code  Gb  stm32h7xx_hal_tim.o [9]
HAL_TIM_PWM_Start          0x1'5003   0x15e  Code  Gb  stm32h7xx_hal_tim.o [9]
HAL_TIM_PWM_Stop           0x1'5161    0xe8  Code  Gb  stm32h7xx_hal_tim.o [9]
HAL_TIM_PeriodElapsedCallback
                           0x1'9281     0x2  Code  Gb  stm32h7xx_hal_tim.o [9]
HAL_TIM_TriggerCallback
                           0x1'9287     0x2  Code  Gb  stm32h7xx_hal_tim.o [9]
HAL_UARTEx_DisableFifoMode
                           0x1'7f31    0x46  Code  Gb  stm32h7xx_hal_uart_ex.o [9]
HAL_UARTEx_RxEventCallback
                           0x1'928d     0x2  Code  Gb  stm32h7xx_hal_uart.o [9]
HAL_UARTEx_RxFifoFullCallback
                           0x1'9293     0x2  Code  Gb  stm32h7xx_hal_uart_ex.o [9]
HAL_UARTEx_SetRxFifoThreshold
                           0x1'7fcd    0x56  Code  Gb  stm32h7xx_hal_uart_ex.o [9]
HAL_UARTEx_SetTxFifoThreshold
                           0x1'7f77    0x56  Code  Gb  stm32h7xx_hal_uart_ex.o [9]
HAL_UARTEx_TxFifoEmptyCallback
                           0x1'9291     0x2  Code  Gb  stm32h7xx_hal_uart_ex.o [9]
HAL_UARTEx_WakeupCallback
                           0x1'928f     0x2  Code  Gb  stm32h7xx_hal_uart_ex.o [9]
HAL_UART_DeInit            0x1'7043    0x56  Code  Gb  stm32h7xx_hal_uart.o [9]
HAL_UART_ErrorCallback     0x1'928b     0x2  Code  Gb  stm32h7xx_hal_uart.o [9]
HAL_UART_IRQHandler        0x1'7151   0x3c0  Code  Gb  stm32h7xx_hal_uart.o [9]
HAL_UART_Init              0x1'6fc5    0x7e  Code  Gb  stm32h7xx_hal_uart.o [9]
HAL_UART_MspDeInit         0x1'1b49    0xa6  Code  Gb  stm32h7xx_hal_msp.o [2]
HAL_UART_MspInit           0x1'18d7   0x272  Code  Gb  stm32h7xx_hal_msp.o [2]
HAL_UART_Transmit_IT       0x1'7099    0xb8  Code  Gb  stm32h7xx_hal_uart.o [9]
HAL_UART_TxCpltCallback
                           0x1'94c5     0x2  Code  Gb  stm32h7xx_hal_uart.o [9]
HRTIM_ForceRegistersUpdate
                           0x1'6c4d    0x82  Code  Lc  stm32h7xx_hal_hrtim.o [9]
HRTIM_MasterBase_Config
                           0x1'68ed    0x2a  Code  Lc  stm32h7xx_hal_hrtim.o [9]
HRTIM_MasterWaveform_Config
                           0x1'6969    0x5c  Code  Lc  stm32h7xx_hal_hrtim.o [9]
HRTIM_OutputConfig         0x1'6b5d    0xf0  Code  Lc  stm32h7xx_hal_hrtim.o [9]
HRTIM_TimingUnitBase_Config
                           0x1'6917    0x52  Code  Lc  stm32h7xx_hal_hrtim.o [9]
HRTIM_TimingUnitWaveform_Config
                           0x1'69c5   0x198  Code  Lc  stm32h7xx_hal_hrtim.o [9]
HardFault_Handler          0x1'a657     0x2  Code  Gb  stm32h7xx_it.o [2]
IDC                     0x2000'2b3c     0x4  Data  Gb  g_Core.o [4]
Icons                   0x2000'0484    0x24  Data  Gb  peref.o [6]
InterruptUpdate            0x1'a32d   0x1fc  Code  Gb  g_InterruptUpdate.o [5]
InvCtrlTimer            0x2000'2b34     0x4  Data  Gb  g_Core.o [4]
LL_ADC_DisableDeepPowerDown
                           0x1'1e43     0xc  Code  Lc  stm32h7xx_hal_adc.o [9]
LL_ADC_Enable              0x1'1e73    0x10  Code  Lc  stm32h7xx_hal_adc.o [9]
LL_ADC_EnableInternalRegulator
                           0x1'1e59    0x10  Code  Lc  stm32h7xx_hal_adc.o [9]
LL_ADC_GetCommonPathInternalCh
                           0x1'1d29     0x8  Code  Lc  stm32h7xx_hal_adc.o [9]
LL_ADC_GetMultiDMATransfer
                           0x1'1e3b     0x8  Code  Lc  stm32h7xx_hal_adc.o [9]
LL_ADC_GetMultimode        0x1'1e33     0x8  Code  Lc  stm32h7xx_hal_adc.o [9]
LL_ADC_INJ_IsConversionOngoing
                           0x1'1ea5     0xa  Code  Lc  stm32h7xx_hal_adc.o [9]
LL_ADC_INJ_IsTriggerSourceSWStart
                           0x1'1dc9    0x10  Code  Lc  stm32h7xx_hal_adc.o [9]
LL_ADC_IsDeepPowerDownEnabled
                           0x1'1e4f     0xa  Code  Lc  stm32h7xx_hal_adc.o [9]
LL_ADC_IsEnabled           0x1'1e83     0x8  Code  Lc  stm32h7xx_hal_adc.o [9]
LL_ADC_IsEnabled           0x1'62a1     0x8  Code  Lc  stm32h7xx_hal_adc_ex.o [9]
LL_ADC_IsInternalRegulatorEnabled
                           0x1'1e69     0xa  Code  Lc  stm32h7xx_hal_adc.o [9]
LL_ADC_REG_IsConversionOngoing
                           0x1'1e9b     0xa  Code  Lc  stm32h7xx_hal_adc.o [9]
LL_ADC_REG_IsConversionOngoing
                           0x1'62a9     0xa  Code  Lc  stm32h7xx_hal_adc_ex.o [9]
LL_ADC_REG_IsTriggerSourceSWStart
                           0x1'1d7f    0x10  Code  Lc  stm32h7xx_hal_adc.o [9]
LL_ADC_REG_SetDataTransferMode
                           0x1'1dbd     0xc  Code  Lc  stm32h7xx_hal_adc.o [9]
LL_ADC_REG_SetSequencerRanks
                           0x1'1d8f    0x2e  Code  Lc  stm32h7xx_hal_adc.o [9]
LL_ADC_REG_StartConversion
                           0x1'1e8b    0x10  Code  Lc  stm32h7xx_hal_adc.o [9]
LL_ADC_SetChannelSamplingTime
                           0x1'1dd9    0x34  Code  Lc  stm32h7xx_hal_adc.o [9]
LL_ADC_SetChannelSingleDiff
                           0x1'1e0d    0x26  Code  Lc  stm32h7xx_hal_adc.o [9]
LL_ADC_SetCommonClock      0x1'1d11     0xc  Code  Lc  stm32h7xx_hal_adc.o [9]
LL_ADC_SetCommonPathInternalCh
                           0x1'1d1d     0xc  Code  Lc  stm32h7xx_hal_adc.o [9]
LL_ADC_SetDataRightShift
                           0x1'1d4f    0x18  Code  Lc  stm32h7xx_hal_adc.o [9]
LL_ADC_SetOffset           0x1'1d31    0x1e  Code  Lc  stm32h7xx_hal_adc.o [9]
LL_ADC_SetOffsetSignedSaturation
                           0x1'1d67    0x18  Code  Lc  stm32h7xx_hal_adc.o [9]
LogInputCalc                 0xc925   0x12c  Code  Gb  peref.o [6]
MCP23S17_init                0xccd9    0x14  Code  Gb  peref.o [6]
MCP23S17_read                0xcc61    0x50  Code  Gb  peref.o [6]
MCP23S17_update              0xcced    0x22  Code  Gb  peref.o [6]
MCP23S17_write               0xcc19    0x3c  Code  Gb  peref.o [6]
MX_ADC1_Init                 0xe791   0x18a  Code  Lc  main.o [2]
MX_ADC3_Init                 0xe91b   0x12a  Code  Lc  main.o [2]
MX_DMA_Init                  0xf2a1    0x3c  Code  Lc  main.o [2]
MX_FDCAN2_Init               0xea45    0xf6  Code  Lc  main.o [2]
MX_GPIO_Init                 0xf30d   0x250  Code  Lc  main.o [2]
MX_HRTIM_Init                0xeb3b   0x14c  Code  Lc  main.o [2]
MX_SPI1_Init                 0xec87    0xce  Code  Lc  main.o [2]
MX_SPI6_Init                 0xed55    0xd0  Code  Lc  main.o [2]
MX_TIM1_Init                 0xee25   0x16e  Code  Lc  main.o [2]
MX_TIM2_Init                 0xef93    0x84  Code  Lc  main.o [2]
MX_UART4_Init                0xf017    0xa4  Code  Lc  main.o [2]
MX_UART5_Init                0xf0bb    0x86  Code  Lc  main.o [2]
MX_UART8_Init                0xf141    0xa4  Code  Lc  main.o [2]
MX_USART3_UART_Init          0xf1f5    0x9e  Code  Lc  main.o [2]
MbConnect               0x2000'2be8     0x1  Data  Gb  drv_modbus.o [3]
MbTmpData               0x2000'1710    0x64  Data  Gb  drv_modbus.o [3]
MbTxCtrl                   0x1'4d75    0x12  Code  Gb  drv_modbus.o [3]
MemManage_Handler          0x1'a659     0x2  Code  Gb  stm32h7xx_it.o [2]
ModBusRecieve              0x1'48c1   0x1da  Code  Gb  drv_modbus.o [3]
ModBusReset                0x1'46e5   0x196  Code  Lc  drv_modbus.o [3]
ModBusSetup                0x1'467f    0x66  Code  Gb  drv_modbus.o [3]
ModFault                0x2000'0028     0x4  Data  Gb  g_Core.o [4]
ModuleTemper            0x2000'2b38     0x4  Data  Gb  g_Core.o [4]
MoveMode                   0x1'34c7    0xba  Code  Lc  g_Core.o [4]
MpuControl                 0x1'8999    0x70  Code  Gb  core_VlvDrvCtrl.o [4]
NMI_Handler                0x1'a655     0x2  Code  Gb  stm32h7xx_it.o [2]
NVIC_EncodePriority          0x9a2f    0x42  Code  Lc  stm32h7xx_hal_cortex.o [9]
OutVolt                 0x2000'2b30     0x4  Data  Gb  g_Core.o [4]
OutputQ15               0x2000'2b64     0x4  Data  Gb  g_Core.o [4]
PFUNC_blkRead                0xb5c9    0x1e  Code  Gb  add_ValueConv.o [2]
PFUNC_wordRead               0xb5e7     0x4  Code  Gb  add_ValueConv.o [2]
PWMPreScale             0x2000'001c     0x4  Data  Gb  g_Core.o [4]
PWM_keys_disable           0x1'3b4b    0x40  Code  Gb  g_Core.o [4]
PWM_keys_enable            0x1'3b8b    0x40  Code  Gb  g_Core.o [4]
PauseModbus             0x2000'2b90     0x4  Data  Gb  main.o [2]
PendSV_Handler             0x1'a663     0x2  Code  Gb  stm32h7xx_it.o [2]
Peref_CalibInit            0x1'0075    0x88  Code  Gb  peref_Calibs.o [6]
Peref_CalibUpdate          0x1'0229   0x1b2  Code  Gb  peref_Calibs.o [6]
Peref_Calibration          0x1'0129   0x100  Code  Gb  peref_Calibs.o [6]
Peref_SensObserverInit       0xfa05    0x48  Code  Gb  peref_SensObserver.o [6]
Peref_SensObserverUpdate
                             0xfa4d   0x218  Code  Gb  peref_SensObserver.o [6]
Peref_SinObserverInitFloat
                             0xfcb1    0x10  Code  Gb  peref_SinObserver.o [6]
Peref_SinObserverUpdateFloat
                             0xfcc1    0x8a  Code  Gb  peref_SinObserver.o [6]
Peref_SpeedCalc            0x1'0467    0x78  Code  Gb  peref_Calibs.o [6]
Peref_SpeedCalc::RevPrev
                        0x2000'04b0     0x4  Data  Lc  peref_Calibs.o [6]
Peref_SpeedCalc::Timer  0x2000'2bd4     0x4  Data  Lc  peref_Calibs.o [6]
PeriphCommonClock_Config
                             0xe743    0x4e  Code  Gb  main.o [2]
PutChar                      0xf651    0x1e  Code  Gb  peref_display.o [6]
PutComm                      0xf633    0x1e  Code  Gb  peref_display.o [6]
PutData                      0xf8e1    0x4a  Code  Lc  peref_display.o [6]
PwmDeltat               0x2000'2b28     0x4  Data  Gb  g_Core.o [4]
PwmFreq                 0x2000'2b24     0x4  Data  Gb  g_Core.o [4]
RCCEx_PLL2_Config            0x8d0b   0x130  Code  Lc  stm32h7xx_hal_rcc_ex.o [9]
RCCEx_PLL3_Config            0x8e41   0x130  Code  Lc  stm32h7xx_hal_rcc_ex.o [9]
RTC_Bcd2ToByte             0x1'1211    0x14  Code  Gb  stm32h7xx_hal_rtc.o [9]
RTC_ByteToBcd2             0x1'11f5    0x1c  Code  Gb  stm32h7xx_hal_rtc.o [9]
RTC_DefMaxDay                0xb637    0x3e  Code  Gb  peref_Clock.o [6]
RTC_EnterInitMode          0x1'113b    0x44  Code  Gb  stm32h7xx_hal_rtc.o [9]
RTC_ExitInitMode           0x1'117f    0x62  Code  Gb  stm32h7xx_hal_rtc.o [9]
ReStartReadLine            0x1'487b    0x46  Code  Gb  drv_modbus.o [3]
ReWriteParams                0xb88d     0x2  Code  Gb  g_Ram.o [5]
ReadDcrFull                  0xaf0f    0x3e  Code  Lc  core_Menu.o [4]
ReadRegs                   0x1'4a9b    0x4a  Code  Lc  drv_modbus.o [3]
ReadWriteAllParams           0xb261    0x9a  Code  Gb  core_Menu.o [4]
ReadWriteEeprom              0xb737    0x2e  Code  Gb  stat.o [7]
RefreshParams                0xb88f    0x3e  Code  Gb  g_Ram.o [5]
Region$$Table$$Base        0x1'a924           --   Gb  - Linker created -
Region$$Table$$Limit       0x1'a944           --   Gb  - Linker created -
RtcControl                   0xca51   0x156  Code  Gb  peref.o [6]
RtcControl::PrevDate    0x2000'2bc8     0x4  Data  Lc  peref.o [6]
RtcControl::PrevTime    0x2000'2bc4     0x4  Data  Lc  peref.o [6]
RtcStart                0x2000'2bea     0x1  Data  Gb  peref.o [6]
RtcUpdateFlag           0x2000'2b94     0x4  Data  Gb  peref.o [6]
RxHeader                0x2000'2a54    0x28  Data  Gb  CMS58M.o [6]
SPI1_IRQHandler            0x1'a6b9     0xa  Code  Gb  stm32h7xx_it.o [2]
SPI6_IRQHandler            0x1'a701     0xa  Code  Gb  stm32h7xx_it.o [2]
SPIReinit                    0xbbad   0x12a  Code  Gb  peref.o [6]
SPI_CloseTransfer            0xe391    0xce  Code  Lc  stm32h7xx_hal_spi.o [9]
SPI_DMAAbortOnError          0xe371    0x20  Code  Lc  stm32h7xx_hal_spi.o [9]
SPI_GetPacketSize            0xe4ad    0x16  Code  Lc  stm32h7xx_hal_spi.o [9]
SPI_WaitOnFlagUntilTimeout
                             0xe469    0x44  Code  Lc  stm32h7xx_hal_spi.o [9]
SVC_Handler                0x1'a65f     0x2  Code  Gb  stm32h7xx_it.o [2]
SelectGroup                  0x9fd5    0xe0  Code  Gb  core_Menu.o [4]
SelectParam                  0xa0b5    0x5e  Code  Gb  core_Menu.o [4]
SendData                     0xf867    0x78  Code  Lc  peref_display.o [6]
SerialCommInit             0x1'4505    0x16  Code  Gb  drv_modbus.o [3]
SerialCommRefresh          0x1'4673     0xc  Code  Gb  drv_modbus.o [3]
SerialCommRxHandler        0x1'4543    0x56  Code  Gb  drv_modbus.o [3]
SerialCommTimings          0x1'45d3    0xa0  Code  Gb  drv_modbus.o [3]
SerialCommTxHandler        0x1'4599    0x3a  Code  Gb  drv_modbus.o [3]
SerialCommUpdate           0x1'451b    0x28  Code  Gb  drv_modbus.o [3]
SetDefaultValues             0xb14b   0x114  Code  Gb  core_Menu.o [4]
SetDefaultValues::DefAddr
                        0x2000'2b14     0x4  Data  Lc  core_Menu.o [4]
SetModBusParams              0xb2fb    0x52  Code  Gb  core_Menu.o [4]
ShowGroup                    0xa88b   0x138  Code  Lc  core_Menu.o [4]
ShowParam                    0xadf5    0x38  Code  Lc  core_Menu.o [4]
ShowStart                    0xa849    0x42  Code  Gb  core_Menu.o [4]
ShowValue                    0xaa3d   0x3b8  Code  Lc  core_Menu.o [4]
SleepMode                    0x9f3d    0x5a  Code  Gb  core_Menu.o [4]
SpeedEnable             0x2000'2b4c     0x4  Data  Gb  g_Core.o [4]
SpeedMax                0x2000'2b48     0x4  Data  Gb  g_Core.o [4]
SpeedRef                0x2000'2b2c     0x4  Data  Gb  g_Core.o [4]
StartDispl                   0xae2d    0x44  Code  Gb  core_Menu.o [4]
StartMode                  0x1'34bb     0xc  Code  Lc  g_Core.o [4]
StartPowerControl          0x1'3363   0x10e  Code  Gb  g_Core.o [4]
StartState                   0x9f97    0x3e  Code  Gb  core_Menu.o [4]
StartTimer              0x2000'0024     0x4  Data  Gb  g_Core.o [4]
Stat_Init                    0xb733     0x4  Code  Gb  stat.o [7]
StopMode                   0x1'34a3    0x18  Code  Lc  g_Core.o [4]
StopPowerControl           0x1'329d    0xc6  Code  Gb  g_Core.o [4]
StrToDec                     0xb57d    0x3a  Code  Gb  add_ValueConv.o [2]
Symbols                 0x2000'04b4    0x70  Data  Lc  peref_display.o [6]
SysTick_Config               0x9a71    0x30  Code  Lc  stm32h7xx_hal_cortex.o [9]
SysTick_Handler            0x1'a665     0x8  Code  Gb  stm32h7xx_it.o [2]
SystemClock_Config           0xe633   0x110  Code  Gb  main.o [2]
SystemCoreClock         0x2000'0584     0x4  Data  Gb  system_stm32h7xx.o [8]
SystemD2Clock           0x2000'0588     0x4  Data  Gb  system_stm32h7xx.o [8]
SystemInit                 0x1'a529    0xd0  Code  Gb  system_stm32h7xx.o [8]
TIM2_IRQHandler            0x1'a68b    0x2e  Code  Gb  stm32h7xx_it.o [2]
TIM_Base_SetConfig         0x1'5673    0xca  Code  Gb  stm32h7xx_hal_tim.o [9]
TIM_CCxChannelCmd          0x1'5ac7    0x24  Code  Gb  stm32h7xx_hal_tim.o [9]
TIM_CCxNChannelCmd         0x1'6fa1    0x24  Code  Lc  stm32h7xx_hal_tim_ex.o [9]
TIM_ETR_SetConfig          0x1'5ab1    0x16  Code  Gb  stm32h7xx_hal_tim.o [9]
TIM_ITRx_SetConfig         0x1'5a67    0x10  Code  Lc  stm32h7xx_hal_tim.o [9]
TIM_OC1_SetConfig          0x1'573d    0xa0  Code  Lc  stm32h7xx_hal_tim.o [9]
TIM_OC2_SetConfig          0x1'57dd    0x92  Code  Gb  stm32h7xx_hal_tim.o [9]
TIM_OC3_SetConfig          0x1'5871    0x8e  Code  Lc  stm32h7xx_hal_tim.o [9]
TIM_OC4_SetConfig          0x1'58ff    0x68  Code  Lc  stm32h7xx_hal_tim.o [9]
TIM_OC5_SetConfig          0x1'5967    0x58  Code  Lc  stm32h7xx_hal_tim.o [9]
TIM_OC6_SetConfig          0x1'59bf    0x5a  Code  Lc  stm32h7xx_hal_tim.o [9]
TIM_TI1_ConfigInputStage
                           0x1'5a1d    0x24  Code  Lc  stm32h7xx_hal_tim.o [9]
TIM_TI2_ConfigInputStage
                           0x1'5a41    0x26  Code  Lc  stm32h7xx_hal_tim.o [9]
Task10Hz                0x2000'0194    0x84  Data  Gb  g_InterruptUpdate.o [5]
Task18kHz               0x2000'002c    0x30  Data  Gb  g_InterruptUpdate.o [5]
Task200Hz               0x2000'0074    0x30  Data  Gb  g_InterruptUpdate.o [5]
Task2kHz                0x2000'005c    0x18  Data  Gb  g_InterruptUpdate.o [5]
Task50Hz                0x2000'00a4    0xf0  Data  Gb  g_InterruptUpdate.o [5]
TeleControl                0x1'8a09    0xa6  Code  Gb  core_VlvDrvCtrl.o [4]
TempMbFlag              0x2000'2b1c     0x4  Data  Gb  drv_modbus.o [3]
TempObserverInit             0xcf71    0x2a  Code  Gb  peref.o [6]
TempObserverUpdate           0xcfad   0x102  Code  Gb  peref.o [6]
TempObserverUpdate::i   0x2000'2bd0     0x4  Data  Lc  peref.o [6]
TimeSeparator           0x2000'058e     0x1  Data  Gb  add_ValueConv.o [2]
TimeSpeedStop           0x2000'2b54     0x4  Data  Gb  g_Core.o [4]
TimeToStr                    0xb517    0x28  Code  Gb  add_ValueConv.o [2]
TimerIdxToTimerId       0x2000'056c    0x18  Data  Lc  stm32h7xx_hal_hrtim.o [9]
TimerInterp             0x2000'2b50     0x4  Data  Gb  g_Core.o [4]
TimerPending               0x1'4d55    0x1c  Code  Gb  drv_modbus.o [3]
TxHeader                0x2000'2aa4    0x24  Data  Gb  CMS58M.o [6]
UART4_IRQHandler           0x1'a6c3     0xa  Code  Gb  stm32h7xx_it.o [2]
UART5_IRQHandler           0x1'a6cd    0x2a  Code  Gb  stm32h7xx_it.o [2]
UART8_IRQHandler           0x1'a6f7     0xa  Code  Gb  stm32h7xx_it.o [2]
UARTEx_SetNbDataToProcess
                           0x1'8023    0x72  Code  Lc  stm32h7xx_hal_uart_ex.o [9]
UARTEx_SetNbDataToProcess::denominator
                           0x1'aa10     0x8  Data  Lc  stm32h7xx_hal_uart_ex.o [9]
UARTEx_SetNbDataToProcess::numerator
                           0x1'aa08     0x8  Data  Lc  stm32h7xx_hal_uart_ex.o [9]
UARTPrescTable             0x1'a9a8    0x18  Data  Gb  stm32h7xx_hal_uart.o [9]
UART_AdvFeatureConfig      0x1'7b11    0xda  Code  Gb  stm32h7xx_hal_uart.o [9]
UART_CheckIdleState        0x1'7beb    0x72  Code  Gb  stm32h7xx_hal_uart.o [9]
UART_DMAAbortOnError       0x1'7d91    0x1a  Code  Lc  stm32h7xx_hal_uart.o [9]
UART_EndRxTransfer         0x1'7d17    0x3c  Code  Lc  stm32h7xx_hal_uart.o [9]
UART_EndTransmit_IT        0x1'7f03    0x22  Code  Lc  stm32h7xx_hal_uart.o [9]
UART_SetConfig             0x1'752d   0x59e  Code  Gb  stm32h7xx_hal_uart.o [9]
UART_TxISR_16BIT           0x1'7def    0x4a  Code  Lc  stm32h7xx_hal_uart.o [9]
UART_TxISR_16BIT_FIFOEN
                           0x1'7e99    0x6a  Code  Lc  stm32h7xx_hal_uart.o [9]
UART_TxISR_8BIT            0x1'7dab    0x44  Code  Lc  stm32h7xx_hal_uart.o [9]
UART_TxISR_8BIT_FIFOEN     0x1'7e39    0x60  Code  Lc  stm32h7xx_hal_uart.o [9]
UART_WaitOnFlagUntilTimeout
                           0x1'7c5d    0xba  Code  Gb  stm32h7xx_hal_uart.o [9]
UnitControl                0x1'8aaf    0x58  Code  Gb  core_VlvDrvCtrl.o [4]
UpdateCode                   0xae71    0x9e  Code  Gb  core_Menu.o [4]
UpdateComm                 0x1'8c41    0x30  Code  Gb  core_VlvDrvCtrl.o [4]
UsageFault_Handler         0x1'a65d     0x2  Code  Gb  stm32h7xx_it.o [2]
WINSTAR_RusTable        0x2000'0524    0x44  Data  Lc  peref_display.o [6]
WriteRegs                  0x1'4ae5   0x1bc  Code  Lc  drv_modbus.o [3]
WriteValue                   0xafbb    0x88  Code  Gb  core_Menu.o [4]
__NVIC_DisableIRQ            0x99dd    0x26  Code  Lc  stm32h7xx_hal_cortex.o [9]
__NVIC_EnableIRQ             0x99bd    0x20  Code  Lc  stm32h7xx_hal_cortex.o [9]
__NVIC_GetPriorityGrouping
                             0x99af     0xc  Code  Lc  stm32h7xx_hal_cortex.o [9]
__NVIC_SetPriority           0x9a03    0x2c  Code  Lc  stm32h7xx_hal_cortex.o [9]
__NVIC_SetPriorityGrouping
                             0x998d    0x22  Code  Lc  stm32h7xx_hal_cortex.o [9]
__aeabi_cdcmple            0x1'9245          Code  Gb  DblCmpLe.o [11]
__aeabi_cfcmpeq            0x1'8c71          Code  Gb  FltCmpEq.o [11]
__aeabi_cfcmple            0x1'8cd5          Code  Gb  FltCmpLe.o [11]
__aeabi_cfrcmple           0x1'8315          Code  Gb  FltCmpGe.o [11]
__aeabi_d2f                0x1'82ad          Code  Gb  DblToFlt.o [11]
__aeabi_d2uiz              0x1'91f9          Code  Gb  DblToU32.o [11]
__aeabi_dadd               0x1'8cfd          Code  Gb  DblAddSub.o [11]
__aeabi_ddiv               0x1'8489          Code  Gb  DblDiv.o [11]
__aeabi_dmul               0x1'80e5          Code  Gb  DblMul.o [11]
__aeabi_dsub               0x1'8e79          Code  Gb  DblAddSub.o [11]
__aeabi_f2d                0x1'809d          Code  Gb  FltToDbl.o [11]
__aeabi_f2iz               0x1'921d          Code  Gb  FltToS32.o [11]
__aeabi_f2uiz                0x991d          Code  Gb  FltToU32.o [11]
__aeabi_fadd                 0x96d5          Code  Gb  FltAddSub.o [11]
__aeabi_fdiv                 0x95bd          Code  Gb  FltDiv.o [11]
__aeabi_fmul                 0x9845          Code  Gb  FltMul.o [11]
__aeabi_fsub                 0x97b5          Code  Gb  FltAddSub.o [11]
__aeabi_i2d                0x1'8cb1          Code  Gb  S32ToDbl.o [11]
__aeabi_i2f                0x1'8c8d          Code  Gb  S32ToFlt.o [11]
__aeabi_ldiv0              0x1'94c9          Code  Gb  I64DivZer.o [12]
__aeabi_memcpy               0xb68d          Code  Gb  ABImemcpy.o [12]
__aeabi_memcpy4              0xb6ad          Code  Gb  ABImemcpy.o [12]
__aeabi_memcpy8              0xb6ad          Code  Gb  ABImemcpy.o [12]
__aeabi_memset               0xb391          Code  Gb  ABImemset.o [12]
__aeabi_ui2d               0x1'8291          Code  Gb  U32ToDbl.o [11]
__aeabi_ui2f                 0x95a1          Code  Gb  U32ToFlt.o [11]
__aeabi_uldivmod           0x1'9295          Code  Gb  I64DivMod.o [12]
__cmain                    0x1'a945          Code  Gb  cmain.o [12]
__exit                     0x1'a979    0x14  Code  Gb  exit.o [13]
__iar_Memset                 0xb391          Code  Gb  ABImemset.o [12]
__iar_Memset_word            0xb399          Code  Gb  ABImemset.o [12]
__iar_Sin32                0x1'8f5d   0x204  Code  Lc  cos_sin32.o [11]
__iar_Strchr                 0xb675          Code  Gb  strchr.o [12]
__iar_cos32                0x1'9191     0x4  Code  Gb  cos_sin32.o [11]
__iar_cos_medium32         0x1'9191     0x4  Code  Gb  cos_sin32.o [11]
__iar_cos_mediumf          0x1'9191     0x4  Code  Gb  cos_sin32.o [11]
__iar_data_init3           0x1'a8fd    0x28  Code  Gb  data_init.o [12]
__iar_fmax64               0x1'91c9          Code  Gb  fmax.o [11]
__iar_fmin64               0x1'9199          Code  Gb  fmin.o [11]
__iar_lz77_init_single3
                           0x1'a801    0x78  Code  Gb  lz77_init_single.o [12]
__iar_program_start        0x1'a98d          Code  Gb  cstartup_M.o [12]
__iar_sin32                0x1'9195     0x4  Code  Gb  cos_sin32.o [11]
__iar_sin_medium32         0x1'9195     0x4  Code  Gb  cos_sin32.o [11]
__iar_sin_mediumf          0x1'9195     0x4  Code  Gb  cos_sin32.o [11]
__iar_sqrt32               0x1'833d          Code  Gb  sqrtf.o [11]
__iar_zero_init3           0x1'a8c5    0x38  Code  Gb  zero_init3.o [12]
__low_level_init           0x1'a963     0x4  Code  Gb  low_level_init.o [10]
__vector_table                  0x0          Data  Gb  startup_stm32h743xx.o [1]
_call_main                 0x1'a951          Code  Gb  cmain.o [12]
_exit                      0x1'a96d          Code  Gb  cexit.o [12]
a                       0x2000'2b10     0x4  Data  Gb  core_Menu.o [4]
abs                        0x1'0e85     0x8  Code  Gb  abs.o [10]
addr1                   0x2000'2b58     0x4  Data  Gb  g_Core.o [4]
addrtmp                 0x2000'2b18     0x4  Data  Gb  core_Menu.o [4]
addrtmp2                0x2000'2afc     0x4  Data  Gb  core_Menu.o [4]
btnClose                0x2000'2b9c     0x4  Data  Gb  peref.o [6]
btnOpen                 0x2000'2b98     0x4  Data  Gb  peref.o [6]
btnProg1                0x2000'2ba8     0x4  Data  Gb  peref.o [6]
btnProg2                0x2000'2bac     0x4  Data  Gb  peref.o [6]
btnStop1                0x2000'2ba0     0x4  Data  Gb  peref.o [6]
btnStop2                0x2000'2ba4     0x4  Data  Gb  peref.o [6]
cntfordata              0x2000'2b20     0x4  Data  Gb  drv_modbus.o [3]
core10HZupdate             0x1'3d15    0xca  Code  Gb  g_Core.o [4]
core18kHZupdate            0x1'30d5   0x1c8  Code  Gb  g_Core.o [4]
core200HZupdate            0x1'3bcb     0x2  Code  Gb  g_Core.o [4]
core50HZupdate             0x1'3bcd    0x40  Code  Gb  g_Core.o [4]
coreTLocalControl          0x1'4061   0x1fc  Code  Gb  g_Core.o [4]
coreTLocalControl::prevHalls
                        0x2000'2b60     0x4  Data  Lc  g_Core.o [4]
coreTLocalControl::readyForNewCmd
                        0x2000'0590     0x1  Data  Lc  g_Core.o [4]
coreTS                     0x1'3f35   0x120  Code  Gb  g_Core.o [4]
coreTU                     0x1'3e09   0x11a  Code  Gb  g_Core.o [4]
coreTU::clrReset        0x2000'2be9     0x1  Data  Lc  g_Core.o [4]
corr                    0x2000'0020     0x4  Data  Gb  g_Core.o [4]
cosf                       0x1'9191     0x4  Code  Gb  cos_sin32.o [11]
count1                  0x2000'2b5c     0x4  Data  Gb  g_Core.o [4]
count18kHz              0x2000'2b70     0x4  Data  Gb  g_InterruptUpdate.o [5]
count200Hz              0x2000'2b78     0x4  Data  Gb  g_InterruptUpdate.o [5]
count2kHz               0x2000'2b74     0x4  Data  Gb  g_InterruptUpdate.o [5]
count50Hz               0x2000'2b7c     0x4  Data  Gb  g_InterruptUpdate.o [5]
data1                   0x2000'2b68     0x4  Data  Gb  g_Core.o [4]
data2                   0x2000'2b6c     0x4  Data  Gb  g_Core.o [4]
dotsADC                 0x2000'0234   0x108  Data  Gb  peref.o [6]
dotsDAC                 0x2000'033c   0x108  Data  Gb  peref.o [6]
dotsTemper              0x2000'0444    0x40  Data  Gb  peref.o [6]
exit                       0x1'a967     0x4  Code  Gb  exit.o [10]
fmax                       0x1'91c9          Code  Gb  fmax.o [11]
fmaxl                      0x1'91c9          Code  Gb  fmax.o [11]
fmin                       0x1'9199          Code  Gb  fmin.o [11]
fminl                      0x1'9199          Code  Gb  fmin.o [11]
g_Comm                  0x2000'20f8   0x120  Data  Gb  comm.o [3]
g_Core                  0x2000'1778   0x568  Data  Gb  g_Core.o [4]
g_Peref                 0x2000'0e68   0x8a8  Data  Gb  peref.o [6]
g_Ram                   0x2000'0594   0x8d4  Data  Gb  g_Ram.o [5]
g_Ram_Init                   0xb765    0x30  Code  Gb  g_Ram.o [5]
g_Ram_Update                 0xb795    0xf8  Code  Gb  g_Ram.o [5]
g_Stat                  0x2000'22f4    0xc0  Data  Gb  stat.o [7]
groups                     0x1'a760    0xa0  Data  Gb  core_Menu.o [4]
hadc1                   0x2000'2894    0x64  Data  Gb  main.o [2]
hadc3                   0x2000'28f8    0x64  Data  Gb  main.o [2]
hdma_adc1               0x2000'27a4    0x78  Data  Gb  main.o [2]
hdma_adc3               0x2000'281c    0x78  Data  Gb  main.o [2]
hfdcan2                 0x2000'23b4    0xa0  Data  Gb  main.o [2]
hhrtim                  0x2000'2218    0xdc  Data  Gb  main.o [2]
hrtc                    0x2000'2ac8    0x24  Data  Gb  main.o [2]
hspi1                   0x2000'2694    0x88  Data  Gb  main.o [2]
hspi6                   0x2000'271c    0x88  Data  Gb  main.o [2]
htim1                   0x2000'295c    0x4c  Data  Gb  main.o [2]
htim2                   0x2000'29a8    0x4c  Data  Gb  main.o [2]
huart3                  0x2000'2604    0x90  Data  Gb  main.o [2]
huart4                  0x2000'2454    0x90  Data  Gb  main.o [2]
huart5                  0x2000'24e4    0x90  Data  Gb  main.o [2]
huart8                  0x2000'2574    0x90  Data  Gb  main.o [2]
ileg_fq_calc                 0xfd4b    0x94  Code  Gb  peref_SinObserver.o [6]
interp2D_calc              0x1'39a1    0xaa  Code  Gb  g_Core.o [4]
ipark_calc                 0x1'3a4b    0x74  Code  Gb  g_Core.o [4]
labs                       0x1'0e7d     0x8  Code  Gb  labs.o [10]
main                         0xe4c5   0x16e  Code  Gb  main.o [2]
max                     0x2000'04ac     0x4  Data  Gb  peref.o [6]
menu                    0x2000'1ce0   0x218  Data  Gb  core_Menu.o [4]
pADS1118_ConfRegData    0x2000'2be0     0x2  Data  Gb  peref.o [6]
p_Controller               0x1'3c31    0xc6  Code  Gb  g_Core.o [4]
params                        0x298  0x4ee4  Data  Gb  core_Menu.o [4]
park_calc                  0x1'3abf    0x8c  Code  Gb  g_Core.o [4]
peref_10HzCalc               0xc5dd   0x31e  Code  Gb  peref.o [6]
peref_18KHzCalc              0xc31b    0xde  Code  Gb  peref.o [6]
peref_200HzCalc              0xc3fb    0xfe  Code  Gb  peref.o [6]
peref_2KHzCalc               0xc3f9     0x2  Code  Gb  peref.o [6]
peref_50HzCalc               0xc4f9    0xda  Code  Gb  peref.o [6]
peref_74HC595D               0xcba7    0x6c  Code  Gb  peref.o [6]
peref_ADCDACtoPRCObserverUpdate
                             0xce41   0x10a  Code  Gb  peref.o [6]
peref_ADCDACtoPRCObserverUpdate::i
                        0x2000'2bcc     0x4  Data  Lc  peref.o [6]
peref_ADCtoPRCObserverInit
                             0xc21d    0x80  Code  Gb  peref.o [6]
peref_ApFilter1Calc          0xf9df    0x24  Code  Gb  peref_ApFilter1.o [6]
peref_ApFilter1Init          0xf995    0x4a  Code  Gb  peref_ApFilter1.o [6]
peref_Init                   0xbcd7   0x546  Code  Gb  peref.o [6]
peref_ProctoDACObserverInit
                             0xc29d    0x7e  Code  Gb  peref.o [6]
pwm_calc                   0x1'37bd   0x108  Code  Gb  g_Core.o [4]
rampgen_calc               0x1'38dd    0x92  Code  Gb  g_Core.o [4]
sinf                       0x1'9195     0x4  Code  Gb  cos_sin32.o [11]
speedstart              0x2000'2b44     0x4  Data  Gb  g_Core.o [4]
sqrtf                      0x1'833d          Code  Gb  sqrtf.o [11]
strchr                       0xb675          Code  Gb  strchr.o [12]
strcmp                       0xb625          Code  Gb  strcmp.o [12]
strcpy                       0xb379          Code  Gb  strcpy.o [12]
strlen                       0xb5ed          Code  Gb  strlen.o [12]
svgendq3ph_calc            0x1'35ed   0x1c8  Code  Gb  g_Core.o [4]
tmpData                 0x2000'2bc0     0x4  Data  Gb  peref.o [6]
tmpData2                0x2000'04a8     0x4  Data  Gb  peref.o [6]
tmpDelta                0x2000'2bb4     0x4  Data  Gb  peref.o [6]
tmpDelta2               0x2000'2bb8     0x4  Data  Gb  peref.o [6]
tmpDelta3               0x2000'2bbc     0x4  Data  Gb  peref.o [6]
tmpdata                 0x2000'2b00     0x8  Data  Gb  g_Core.o [4]
tmpdata1                0x2000'2a7c    0x28  Data  Gb  drv_modbus.o [3]
tmpdata2                0x2000'2b08     0x8  Data  Gb  g_Core.o [4]
tskCnt10Hz              0x2000'2b8c     0x4  Data  Gb  g_InterruptUpdate.o [5]
tskCnt200Hz             0x2000'2b84     0x4  Data  Gb  g_InterruptUpdate.o [5]
tskCnt2kHz              0x2000'2b80     0x4  Data  Gb  g_InterruptUpdate.o [5]
tskCnt50Hz              0x2000'2b88     0x4  Data  Gb  g_InterruptUpdate.o [5]
tskMaxCnt10Hz           0x2000'0228     0x4  Data  Gb  g_InterruptUpdate.o [5]
tskMaxCnt18kHz          0x2000'0218     0x4  Data  Gb  g_InterruptUpdate.o [5]
tskMaxCnt200Hz          0x2000'0220     0x4  Data  Gb  g_InterruptUpdate.o [5]
tskMaxCnt2kHz           0x2000'021c     0x4  Data  Gb  g_InterruptUpdate.o [5]
tskMaxCnt50Hz           0x2000'0224     0x4  Data  Gb  g_InterruptUpdate.o [5]
txReadSdo                    0xffc7    0x8e  Code  Gb  CMS58M.o [6]
txWriteNmt                   0xfe97    0x60  Code  Gb  CMS58M.o [6]
txWriteSdo                   0xfef7    0xd0  Code  Gb  CMS58M.o [6]
uwTick                  0x2000'2bd8     0x4  Data  Gb  stm32h7xx_hal.o [9]
uwTickFreq              0x2000'0591     0x1  Data  Gb  stm32h7xx_hal.o [9]
uwTickPrio              0x2000'0568     0x4  Data  Gb  stm32h7xx_hal.o [9]
values                     0x1'94cc   0xe60  Data  Gb  core_Menu.o [4]


[1] = D:\WorkOther\EBU6\EWARM\EBU6\Obj\Application\EWARM
[2] = D:\WorkOther\EBU6\EWARM\EBU6\Obj\Application\User\Core
[3] = D:\WorkOther\EBU6\EWARM\EBU6\Obj\Application\User\Core\Comm
[4] = D:\WorkOther\EBU6\EWARM\EBU6\Obj\Application\User\Core\Core
[5] = D:\WorkOther\EBU6\EWARM\EBU6\Obj\Application\User\Core\Global
[6] = D:\WorkOther\EBU6\EWARM\EBU6\Obj\Application\User\Core\Peref
[7] = D:\WorkOther\EBU6\EWARM\EBU6\Obj\Application\User\Core\Stat
[8] = D:\WorkOther\EBU6\EWARM\EBU6\Obj\Drivers\CMSIS
[9] = D:\WorkOther\EBU6\EWARM\EBU6\Obj\Drivers\STM32H7xx_HAL_Driver
[10] = dl7M_tln.a
[11] = m7M_tl.a
[12] = rt7M_tl.a
[13] = shb_l.a

  85'354 bytes of readonly  code memory
  25'124 bytes of readonly  data memory
  12'265 bytes of readwrite data memory

Errors: none
Warnings: none
